(lp1
(lp2
(dp3
Vjob_ptstx1_datastruct
p4
(lp5
VTue, 03 Apr 2018 16:44:01 GMT
p6
aVTue, 03 Apr 2018 16:44:04 GMT
p7
aF3
asa(dp8
Vjob_amr_dict
p9
(lp10
VTue, 03 Apr 2018 16:47:57 GMT
p11
aVTue, 03 Apr 2018 16:47:57 GMT
p12
aF0
asa(dp13
Vjob_ectyper_beautify_serotype
p14
(lp15
VTue, 03 Apr 2018 16:43:46 GMT
p16
aVTue, 03 Apr 2018 16:43:47 GMT
p17
aF1
asa(dp18
Vjob_ectyper_beautify_vf
p19
(lp20
VTue, 03 Apr 2018 16:43:40 GMT
p21
aVTue, 03 Apr 2018 16:43:42 GMT
p22
aF2
asa(dp23
Vjob_ectyper_datastruct_vf
p24
(lp25
VTue, 03 Apr 2018 16:43:40 GMT
p26
aVTue, 03 Apr 2018 16:43:43 GMT
p27
aF3
asa(dp28
Vjob_pteae
p29
(lp30
VTue, 03 Apr 2018 16:44:00 GMT
p31
aVTue, 03 Apr 2018 16:46:56 GMT
p32
aF176
asa(dp33
Vjob_ptstx1_dict
p34
(lp35
VTue, 03 Apr 2018 16:44:00 GMT
p36
aVTue, 03 Apr 2018 16:44:01 GMT
p37
aF1
asa(dp38
Vjob_ectyper_serotype
p39
(lp40
VTue, 03 Apr 2018 16:43:30 GMT
p41
aVTue, 03 Apr 2018 16:43:46 GMT
p42
aF16
asa(dp43
Vjob_pteae_dict
p44
(lp45
VTue, 03 Apr 2018 16:46:56 GMT
p46
aVTue, 03 Apr 2018 16:46:57 GMT
p47
aF1
asa(dp48
Vjob_ptstx1_beautify
p49
(lp50
VTue, 03 Apr 2018 16:44:01 GMT
p51
aVTue, 03 Apr 2018 16:44:04 GMT
p52
aF3
asa(dp53
Vjob_ptstx2_datastruct
p54
(lp55
VTue, 03 Apr 2018 16:44:06 GMT
p56
aVTue, 03 Apr 2018 16:44:07 GMT
p57
aF1
asa(dp58
Vjob_pteae_beautify
p59
(lp60
VTue, 03 Apr 2018 16:46:57 GMT
p61
aVTue, 03 Apr 2018 16:46:59 GMT
p62
aF2
asa(dp63
Vjob_turtle
p64
(lp65
VTue, 03 Apr 2018 16:43:28 GMT
p66
aVTue, 03 Apr 2018 16:43:29 GMT
p67
aF1
asa(dp68
Vjob_id
p69
(lp70
VTue, 03 Apr 2018 16:43:28 GMT
p71
aVTue, 03 Apr 2018 16:43:30 GMT
p72
aF2
asa(dp73
Vjob_ectyper_vf
p74
(lp75
VTue, 03 Apr 2018 16:43:30 GMT
p76
aVTue, 03 Apr 2018 16:43:40 GMT
p77
aF10
asa(dp78
Vjob_amr_beautify
p79
(lp80
VTue, 03 Apr 2018 16:47:57 GMT
p81
aVTue, 03 Apr 2018 16:47:59 GMT
p82
aF2
asa(dp83
Vjob_ectyper_datastruct_serotype
p84
(lp85
VTue, 03 Apr 2018 16:43:46 GMT
p86
aVTue, 03 Apr 2018 16:43:47 GMT
p87
aF1
asa(dp88
Vjob_ptstx2
p89
(lp90
VTue, 03 Apr 2018 16:43:43 GMT
p91
aVTue, 03 Apr 2018 16:44:04 GMT
p92
aF21
asa(dp93
Vjob_ptstx1
p94
(lp95
VTue, 03 Apr 2018 16:43:43 GMT
p96
aVTue, 03 Apr 2018 16:44:00 GMT
p97
aF17
asa(dp98
Vjob_amr
p99
(lp100
VTue, 03 Apr 2018 16:43:30 GMT
p101
aVTue, 03 Apr 2018 16:47:57 GMT
p102
aF267
asa(dp103
Vjob_amr_datastruct
p104
(lp105
VTue, 03 Apr 2018 16:47:57 GMT
p106
aVTue, 03 Apr 2018 16:47:58 GMT
p107
aF1
asa(dp108
Vjob_ptstx2_dict
p109
(lp110
VTue, 03 Apr 2018 16:44:04 GMT
p111
aVTue, 03 Apr 2018 16:44:05 GMT
p112
aF1
asa(dp113
Vjob_qc
p114
(lp115
VTue, 03 Apr 2018 16:43:25 GMT
p116
aVTue, 03 Apr 2018 16:43:28 GMT
p117
aF3
asa(dp118
Vjob_pteae_datastruct
p119
(lp120
VTue, 03 Apr 2018 16:46:57 GMT
p121
aVTue, 03 Apr 2018 16:46:59 GMT
p122
aF2
asa(dp123
Vjob_ptstx2_beautify
p124
(lp125
VTue, 03 Apr 2018 16:44:06 GMT
p126
aVTue, 03 Apr 2018 16:44:07 GMT
p127
aF1
asa(dp128
Vtotal
p129
(lp130
VTue, 03 Apr 2018 16:43:25 GMT
p131
aVTue, 03 Apr 2018 16:47:59 GMT
p132
aF274
asaa(lp133
(dp134
Vjob_ptstx1_datastruct
p135
(lp136
VTue, 03 Apr 2018 16:48:31 GMT
p137
aVTue, 03 Apr 2018 16:48:35 GMT
p138
aF4
asa(dp139
Vjob_amr_dict
p140
(lp141
VTue, 03 Apr 2018 16:51:55 GMT
p142
aVTue, 03 Apr 2018 16:51:55 GMT
p143
aF0
asa(dp144
Vjob_ectyper_beautify_serotype
p145
(lp146
VTue, 03 Apr 2018 16:48:27 GMT
p147
aVTue, 03 Apr 2018 16:48:30 GMT
p148
aF3
asa(dp149
Vjob_ectyper_beautify_vf
p150
(lp151
VTue, 03 Apr 2018 16:48:21 GMT
p152
aVTue, 03 Apr 2018 16:48:23 GMT
p153
aF2
asa(dp154
Vjob_ectyper_datastruct_vf
p155
(lp156
VTue, 03 Apr 2018 16:48:20 GMT
p157
aVTue, 03 Apr 2018 16:48:24 GMT
p158
aF4
asa(dp159
Vjob_pteae
p160
(lp161
VTue, 03 Apr 2018 16:48:27 GMT
p162
aVTue, 03 Apr 2018 16:48:29 GMT
p163
aF2
asa(dp164
Vjob_ptstx1_dict
p165
(lp166
VTue, 03 Apr 2018 16:48:27 GMT
p167
aVTue, 03 Apr 2018 16:48:31 GMT
p168
aF4
asa(dp169
Vjob_ectyper_serotype
p170
(lp171
VTue, 03 Apr 2018 16:48:13 GMT
p172
aVTue, 03 Apr 2018 16:48:27 GMT
p173
aF14
asa(dp174
Vjob_pteae_dict
p175
(lp176
VTue, 03 Apr 2018 16:48:29 GMT
p177
aVTue, 03 Apr 2018 16:48:32 GMT
p178
aF3
asa(dp179
Vjob_ptstx1_beautify
p180
(lp181
VTue, 03 Apr 2018 16:48:31 GMT
p182
aVTue, 03 Apr 2018 16:48:35 GMT
p183
aF4
asa(dp184
Vjob_ptstx2_datastruct
p185
(lp186
VTue, 03 Apr 2018 16:48:30 GMT
p187
aVTue, 03 Apr 2018 16:48:34 GMT
p188
aF4
asa(dp189
Vjob_pteae_beautify
p190
(lp191
VTue, 03 Apr 2018 16:48:32 GMT
p192
aVTue, 03 Apr 2018 16:48:35 GMT
p193
aF3
asa(dp194
Vjob_turtle
p195
(lp196
VTue, 03 Apr 2018 16:48:12 GMT
p197
aVTue, 03 Apr 2018 16:48:13 GMT
p198
aF1
asa(dp199
Vjob_id
p200
(lp201
VTue, 03 Apr 2018 16:48:12 GMT
p202
aVTue, 03 Apr 2018 16:48:13 GMT
p203
aF1
asa(dp204
Vjob_ectyper_vf
p205
(lp206
VTue, 03 Apr 2018 16:48:13 GMT
p207
aVTue, 03 Apr 2018 16:48:20 GMT
p208
aF7
asa(dp209
Vjob_amr_beautify
p210
(lp211
VTue, 03 Apr 2018 16:51:55 GMT
p212
aVTue, 03 Apr 2018 16:51:56 GMT
p213
aF1
asa(dp214
Vjob_ectyper_datastruct_serotype
p215
(lp216
VTue, 03 Apr 2018 16:48:27 GMT
p217
aVTue, 03 Apr 2018 16:48:30 GMT
p218
aF3
asa(dp219
Vjob_ptstx2
p220
(lp221
VTue, 03 Apr 2018 16:48:24 GMT
p222
aVTue, 03 Apr 2018 16:48:27 GMT
p223
aF3
asa(dp224
Vjob_ptstx1
p225
(lp226
VTue, 03 Apr 2018 16:48:24 GMT
p227
aVTue, 03 Apr 2018 16:48:27 GMT
p228
aF3
asa(dp229
Vjob_amr
p230
(lp231
VTue, 03 Apr 2018 16:48:13 GMT
p232
aVTue, 03 Apr 2018 16:51:55 GMT
p233
aF222
asa(dp234
Vjob_amr_datastruct
p235
(lp236
VTue, 03 Apr 2018 16:51:55 GMT
p237
aVTue, 03 Apr 2018 16:51:56 GMT
p238
aF1
asa(dp239
Vjob_ptstx2_dict
p240
(lp241
VTue, 03 Apr 2018 16:48:27 GMT
p242
aVTue, 03 Apr 2018 16:48:30 GMT
p243
aF3
asa(dp244
Vjob_qc
p245
(lp246
VTue, 03 Apr 2018 16:48:11 GMT
p247
aVTue, 03 Apr 2018 16:48:12 GMT
p248
aF1
asa(dp249
Vjob_pteae_datastruct
p250
(lp251
VTue, 03 Apr 2018 16:48:32 GMT
p252
aVTue, 03 Apr 2018 16:48:35 GMT
p253
aF3
asa(dp254
Vjob_ptstx2_beautify
p255
(lp256
VTue, 03 Apr 2018 16:48:30 GMT
p257
aVTue, 03 Apr 2018 16:48:34 GMT
p258
aF4
asa(dp259
Vtotal
p260
(lp261
VTue, 03 Apr 2018 16:48:11 GMT
p262
aVTue, 03 Apr 2018 16:51:56 GMT
p263
aF225
asaa(lp264
(dp265
Vjob_ptstx1_datastruct
p266
(lp267
VTue, 03 Apr 2018 16:52:25 GMT
p268
aVTue, 03 Apr 2018 16:52:29 GMT
p269
aF4
asa(dp270
Vjob_amr_dict
p271
(lp272
VTue, 03 Apr 2018 16:55:34 GMT
p273
aVTue, 03 Apr 2018 16:55:34 GMT
p274
aF0
asa(dp275
Vjob_ectyper_beautify_serotype
p276
(lp277
VTue, 03 Apr 2018 16:52:25 GMT
p278
aVTue, 03 Apr 2018 16:52:29 GMT
p279
aF4
asa(dp280
Vjob_ectyper_beautify_vf
p281
(lp282
VTue, 03 Apr 2018 16:52:17 GMT
p283
aVTue, 03 Apr 2018 16:52:19 GMT
p284
aF2
asa(dp285
Vjob_ectyper_datastruct_vf
p286
(lp287
VTue, 03 Apr 2018 16:52:17 GMT
p288
aVTue, 03 Apr 2018 16:52:20 GMT
p289
aF3
asa(dp290
Vjob_pteae
p291
(lp292
VTue, 03 Apr 2018 16:52:22 GMT
p293
aVTue, 03 Apr 2018 16:52:24 GMT
p294
aF2
asa(dp295
Vjob_ptstx1_dict
p296
(lp297
VTue, 03 Apr 2018 16:52:22 GMT
p298
aVTue, 03 Apr 2018 16:52:25 GMT
p299
aF3
asa(dp300
Vjob_ectyper_serotype
p301
(lp302
VTue, 03 Apr 2018 16:52:10 GMT
p303
aVTue, 03 Apr 2018 16:52:25 GMT
p304
aF15
asa(dp305
Vjob_pteae_dict
p306
(lp307
VTue, 03 Apr 2018 16:52:24 GMT
p308
aVTue, 03 Apr 2018 16:52:27 GMT
p309
aF3
asa(dp310
Vjob_ptstx1_beautify
p311
(lp312
VTue, 03 Apr 2018 16:52:25 GMT
p313
aVTue, 03 Apr 2018 16:52:29 GMT
p314
aF4
asa(dp315
Vjob_ptstx2_datastruct
p316
(lp317
VTue, 03 Apr 2018 16:52:25 GMT
p318
aVTue, 03 Apr 2018 16:52:29 GMT
p319
aF4
asa(dp320
Vjob_pteae_beautify
p321
(lp322
VTue, 03 Apr 2018 16:52:27 GMT
p323
aVTue, 03 Apr 2018 16:52:30 GMT
p324
aF3
asa(dp325
Vjob_turtle
p326
(lp327
VTue, 03 Apr 2018 16:52:09 GMT
p328
aVTue, 03 Apr 2018 16:52:10 GMT
p329
aF1
asa(dp330
Vjob_id
p331
(lp332
VTue, 03 Apr 2018 16:52:09 GMT
p333
aVTue, 03 Apr 2018 16:52:10 GMT
p334
aF1
asa(dp335
Vjob_ectyper_vf
p336
(lp337
VTue, 03 Apr 2018 16:52:10 GMT
p338
aVTue, 03 Apr 2018 16:52:17 GMT
p339
aF7
asa(dp340
Vjob_amr_beautify
p341
(lp342
VTue, 03 Apr 2018 16:55:35 GMT
p343
aVTue, 03 Apr 2018 16:55:36 GMT
p344
aF1
asa(dp345
Vjob_ectyper_datastruct_serotype
p346
(lp347
VTue, 03 Apr 2018 16:52:25 GMT
p348
aVTue, 03 Apr 2018 16:52:27 GMT
p349
aF2
asa(dp350
Vjob_ptstx2
p351
(lp352
VTue, 03 Apr 2018 16:52:20 GMT
p353
aVTue, 03 Apr 2018 16:52:22 GMT
p354
aF2
asa(dp355
Vjob_ptstx1
p356
(lp357
VTue, 03 Apr 2018 16:52:20 GMT
p358
aVTue, 03 Apr 2018 16:52:22 GMT
p359
aF2
asa(dp360
Vjob_amr
p361
(lp362
VTue, 03 Apr 2018 16:52:10 GMT
p363
aVTue, 03 Apr 2018 16:55:34 GMT
p364
aF204
asa(dp365
Vjob_amr_datastruct
p366
(lp367
VTue, 03 Apr 2018 16:55:35 GMT
p368
aVTue, 03 Apr 2018 16:55:35 GMT
p369
aF0
asa(dp370
Vjob_ptstx2_dict
p371
(lp372
VTue, 03 Apr 2018 16:52:22 GMT
p373
aVTue, 03 Apr 2018 16:52:25 GMT
p374
aF3
asa(dp375
Vjob_qc
p376
(lp377
VTue, 03 Apr 2018 16:52:08 GMT
p378
aVTue, 03 Apr 2018 16:52:09 GMT
p379
aF1
asa(dp380
Vjob_pteae_datastruct
p381
(lp382
VTue, 03 Apr 2018 16:52:27 GMT
p383
aVTue, 03 Apr 2018 16:52:30 GMT
p384
aF3
asa(dp385
Vjob_ptstx2_beautify
p386
(lp387
VTue, 03 Apr 2018 16:52:25 GMT
p388
aVTue, 03 Apr 2018 16:52:29 GMT
p389
aF4
asa(dp390
Vtotal
p391
(lp392
VTue, 03 Apr 2018 16:52:08 GMT
p393
aVTue, 03 Apr 2018 16:55:36 GMT
p394
aF208
asaa(lp395
(dp396
Vjob_ptstx1_datastruct
p397
(lp398
VTue, 03 Apr 2018 16:56:04 GMT
p399
aVTue, 03 Apr 2018 16:56:08 GMT
p400
aF4
asa(dp401
Vjob_amr_dict
p402
(lp403
VTue, 03 Apr 2018 16:59:20 GMT
p404
aVTue, 03 Apr 2018 16:59:21 GMT
p405
aF1
asa(dp406
Vjob_ectyper_beautify_serotype
p407
(lp408
VTue, 03 Apr 2018 16:56:00 GMT
p409
aVTue, 03 Apr 2018 16:56:04 GMT
p410
aF4
asa(dp411
Vjob_ectyper_beautify_vf
p412
(lp413
VTue, 03 Apr 2018 16:55:54 GMT
p414
aVTue, 03 Apr 2018 16:55:56 GMT
p415
aF2
asa(dp416
Vjob_ectyper_datastruct_vf
p417
(lp418
VTue, 03 Apr 2018 16:55:54 GMT
p419
aVTue, 03 Apr 2018 16:55:58 GMT
p420
aF4
asa(dp421
Vjob_pteae
p422
(lp423
VTue, 03 Apr 2018 16:56:00 GMT
p424
aVTue, 03 Apr 2018 16:56:01 GMT
p425
aF1
asa(dp426
Vjob_ptstx1_dict
p427
(lp428
VTue, 03 Apr 2018 16:56:00 GMT
p429
aVTue, 03 Apr 2018 16:56:04 GMT
p430
aF4
asa(dp431
Vjob_ectyper_serotype
p432
(lp433
VTue, 03 Apr 2018 16:55:47 GMT
p434
aVTue, 03 Apr 2018 16:56:00 GMT
p435
aF13
asa(dp436
Vjob_pteae_dict
p437
(lp438
VTue, 03 Apr 2018 16:56:01 GMT
p439
aVTue, 03 Apr 2018 16:56:04 GMT
p440
aF3
asa(dp441
Vjob_ptstx1_beautify
p442
(lp443
VTue, 03 Apr 2018 16:56:04 GMT
p444
aVTue, 03 Apr 2018 16:56:08 GMT
p445
aF4
asa(dp446
Vjob_ptstx2_datastruct
p447
(lp448
VTue, 03 Apr 2018 16:56:04 GMT
p449
aVTue, 03 Apr 2018 16:56:08 GMT
p450
aF4
asa(dp451
Vjob_pteae_beautify
p452
(lp453
VTue, 03 Apr 2018 16:56:04 GMT
p454
aVTue, 03 Apr 2018 16:56:08 GMT
p455
aF4
asa(dp456
Vjob_turtle
p457
(lp458
VTue, 03 Apr 2018 16:55:46 GMT
p459
aVTue, 03 Apr 2018 16:55:47 GMT
p460
aF1
asa(dp461
Vjob_id
p462
(lp463
VTue, 03 Apr 2018 16:55:46 GMT
p464
aVTue, 03 Apr 2018 16:55:47 GMT
p465
aF1
asa(dp466
Vjob_ectyper_vf
p467
(lp468
VTue, 03 Apr 2018 16:55:47 GMT
p469
aVTue, 03 Apr 2018 16:55:54 GMT
p470
aF7
asa(dp471
Vjob_amr_beautify
p472
(lp473
VTue, 03 Apr 2018 16:59:21 GMT
p474
aVTue, 03 Apr 2018 16:59:22 GMT
p475
aF1
asa(dp476
Vjob_ectyper_datastruct_serotype
p477
(lp478
VTue, 03 Apr 2018 16:56:00 GMT
p479
aVTue, 03 Apr 2018 16:56:03 GMT
p480
aF3
asa(dp481
Vjob_ptstx2
p482
(lp483
VTue, 03 Apr 2018 16:55:58 GMT
p484
aVTue, 03 Apr 2018 16:56:00 GMT
p485
aF2
asa(dp486
Vjob_ptstx1
p487
(lp488
VTue, 03 Apr 2018 16:55:58 GMT
p489
aVTue, 03 Apr 2018 16:56:00 GMT
p490
aF2
asa(dp491
Vjob_amr
p492
(lp493
VTue, 03 Apr 2018 16:55:47 GMT
p494
aVTue, 03 Apr 2018 16:59:20 GMT
p495
aF213
asa(dp496
Vjob_amr_datastruct
p497
(lp498
VTue, 03 Apr 2018 16:59:21 GMT
p499
aVTue, 03 Apr 2018 16:59:21 GMT
p500
aF0
asa(dp501
Vjob_ptstx2_dict
p502
(lp503
VTue, 03 Apr 2018 16:56:00 GMT
p504
aVTue, 03 Apr 2018 16:56:04 GMT
p505
aF4
asa(dp506
Vjob_qc
p507
(lp508
VTue, 03 Apr 2018 16:55:45 GMT
p509
aVTue, 03 Apr 2018 16:55:46 GMT
p510
aF1
asa(dp511
Vjob_pteae_datastruct
p512
(lp513
VTue, 03 Apr 2018 16:56:04 GMT
p514
aVTue, 03 Apr 2018 16:56:08 GMT
p515
aF4
asa(dp516
Vjob_ptstx2_beautify
p517
(lp518
VTue, 03 Apr 2018 16:56:04 GMT
p519
aVTue, 03 Apr 2018 16:56:08 GMT
p520
aF4
asa(dp521
Vtotal
p522
(lp523
VTue, 03 Apr 2018 16:55:45 GMT
p524
aVTue, 03 Apr 2018 16:59:22 GMT
p525
aF217
asaa(lp526
(dp527
Vjob_ptstx1_datastruct
p528
(lp529
VTue, 03 Apr 2018 16:59:49 GMT
p530
aVTue, 03 Apr 2018 16:59:52 GMT
p531
aF3
asa(dp532
Vjob_amr_dict
p533
(lp534
VTue, 03 Apr 2018 17:03:13 GMT
p535
aVTue, 03 Apr 2018 17:03:13 GMT
p536
aF0
asa(dp537
Vjob_ectyper_beautify_serotype
p538
(lp539
VTue, 03 Apr 2018 16:59:51 GMT
p540
aVTue, 03 Apr 2018 16:59:52 GMT
p541
aF1
asa(dp542
Vjob_ectyper_beautify_vf
p543
(lp544
VTue, 03 Apr 2018 16:59:38 GMT
p545
aVTue, 03 Apr 2018 16:59:41 GMT
p546
aF3
asa(dp547
Vjob_ectyper_datastruct_vf
p548
(lp549
VTue, 03 Apr 2018 16:59:38 GMT
p550
aVTue, 03 Apr 2018 16:59:41 GMT
p551
aF3
asa(dp552
Vjob_pteae
p553
(lp554
VTue, 03 Apr 2018 16:59:41 GMT
p555
aVTue, 03 Apr 2018 16:59:44 GMT
p556
aF3
asa(dp557
Vjob_ptstx1_dict
p558
(lp559
VTue, 03 Apr 2018 16:59:46 GMT
p560
aVTue, 03 Apr 2018 16:59:49 GMT
p561
aF3
asa(dp562
Vjob_ectyper_serotype
p563
(lp564
VTue, 03 Apr 2018 16:59:32 GMT
p565
aVTue, 03 Apr 2018 16:59:49 GMT
p566
aF17
asa(dp567
Vjob_pteae_dict
p568
(lp569
VTue, 03 Apr 2018 16:59:44 GMT
p570
aVTue, 03 Apr 2018 16:59:47 GMT
p571
aF3
asa(dp572
Vjob_ptstx1_beautify
p573
(lp574
VTue, 03 Apr 2018 16:59:49 GMT
p575
aVTue, 03 Apr 2018 16:59:52 GMT
p576
aF3
asa(dp577
Vjob_ptstx2_datastruct
p578
(lp579
VTue, 03 Apr 2018 16:59:47 GMT
p580
aVTue, 03 Apr 2018 16:59:51 GMT
p581
aF4
asa(dp582
Vjob_pteae_beautify
p583
(lp584
VTue, 03 Apr 2018 16:59:47 GMT
p585
aVTue, 03 Apr 2018 16:59:51 GMT
p586
aF4
asa(dp587
Vjob_turtle
p588
(lp589
VTue, 03 Apr 2018 16:59:31 GMT
p590
aVTue, 03 Apr 2018 16:59:32 GMT
p591
aF1
asa(dp592
Vjob_id
p593
(lp594
VTue, 03 Apr 2018 16:59:31 GMT
p595
aVTue, 03 Apr 2018 16:59:32 GMT
p596
aF1
asa(dp597
Vjob_ectyper_vf
p598
(lp599
VTue, 03 Apr 2018 16:59:32 GMT
p600
aVTue, 03 Apr 2018 16:59:38 GMT
p601
aF6
asa(dp602
Vjob_amr_beautify
p603
(lp604
VTue, 03 Apr 2018 17:03:13 GMT
p605
aVTue, 03 Apr 2018 17:03:15 GMT
p606
aF2
asa(dp607
Vjob_ectyper_datastruct_serotype
p608
(lp609
VTue, 03 Apr 2018 16:59:49 GMT
p610
aVTue, 03 Apr 2018 16:59:52 GMT
p611
aF3
asa(dp612
Vjob_ptstx2
p613
(lp614
VTue, 03 Apr 2018 16:59:41 GMT
p615
aVTue, 03 Apr 2018 16:59:44 GMT
p616
aF3
asa(dp617
Vjob_ptstx1
p618
(lp619
VTue, 03 Apr 2018 16:59:44 GMT
p620
aVTue, 03 Apr 2018 16:59:46 GMT
p621
aF2
asa(dp622
Vjob_amr
p623
(lp624
VTue, 03 Apr 2018 16:59:32 GMT
p625
aVTue, 03 Apr 2018 17:03:13 GMT
p626
aF221
asa(dp627
Vjob_amr_datastruct
p628
(lp629
VTue, 03 Apr 2018 17:03:13 GMT
p630
aVTue, 03 Apr 2018 17:03:14 GMT
p631
aF1
asa(dp632
Vjob_ptstx2_dict
p633
(lp634
VTue, 03 Apr 2018 16:59:44 GMT
p635
aVTue, 03 Apr 2018 16:59:47 GMT
p636
aF3
asa(dp637
Vjob_qc
p638
(lp639
VTue, 03 Apr 2018 16:59:30 GMT
p640
aVTue, 03 Apr 2018 16:59:31 GMT
p641
aF1
asa(dp642
Vjob_pteae_datastruct
p643
(lp644
VTue, 03 Apr 2018 16:59:47 GMT
p645
aVTue, 03 Apr 2018 16:59:51 GMT
p646
aF4
asa(dp647
Vjob_ptstx2_beautify
p648
(lp649
VTue, 03 Apr 2018 16:59:47 GMT
p650
aVTue, 03 Apr 2018 16:59:51 GMT
p651
aF4
asa(dp652
Vtotal
p653
(lp654
VTue, 03 Apr 2018 16:59:30 GMT
p655
aVTue, 03 Apr 2018 17:03:15 GMT
p656
aF225
asaa.