(lp1
(I2
I50
I89
V10.0\u000a
VH36
p2
VO5
S'https://www.github.com/superphy#AntimicrobialResistanceGene'
p3
tp4
a(I2
I1110
I134
V128.0\u000a
g2
VH7
g3
tp5
a(I2
I6
I81
V3.0\u000a
g2
VO62
g3
tp6
a(I2
I17
I93
V4.0\u000a
g2
VO81
g3
tp7
a(I2
I33
I82
V5.0\u000a
g2
VH49
g3
tp8
a(I2
I148
I137
V17.0\u000a
g2
VH9
g3
tp9
a(I2
I52
I94
V6.0\u000a
g2
VO91
g3
tp10
a(I2
I91
I79
V11.0\u000a
g2
VO121
g3
tp11
a(I2
I223
I114
V21.0\u000a
g2
VO16
g3
tp12
a(I2
I47
I105
V6.0\u000a
g2
VO21
g3
tp13
a(I2
I121
I106
V13.0\u000a
g2
VO17
g3
tp14
a(I2
I23
I92
V4.0\u000a
g2
VH17
g3
tp15
a(I2
I28
I94
V4.0\u000a
g2
VH26
g3
tp16
a(I2
I35
I102
V5.0\u000a
g2
VH15
g3
tp17
a(I2
I24
I76
V4.0\u000a
g2
VO84
g3
tp18
a(I2
I54
I106
V7.0\u000a
g2
VH12
g3
tp19
a(I2
I90
I99
V9.0\u000a
g2
VO45
g3
tp20
a(I2
I302
I137
V25.0\u000a
g2
VO2
g3
tp21
a(I2
I20
I73
V4.0\u000a
g2
VO112
g3
tp22
a(I2
I122
I94
V13.0\u000a
g2
VO147
g3
tp23
a(I2
I10
I85
V2.0\u000a
g2
VH52
g3
tp24
a(I2
I5
I71
V2.0\u000a
g2
VO107
g3
tp25
a(I2
I7
I80
V2.0\u000a
g2
VH29
g3
tp26
a(I2
I13
I76
V2.0\u000a
g2
VO51
g3
tp27
a(I2
I381
I112
V38.0\u000a
g2
VH11
g3
tp28
a(I2
I13
I74
V3.0\u000a
g2
VO12
g3
tp29
a(I2
I5
I68
V2.0\u000a
g2
VO36
g3
tp30
a(I2
I201
I129
V7.0\u000a
g2
VH6
g3
tp31
a(I2
I4
I72
V2.0\u000a
g2
VH46
g3
tp32
a(I2
I6
I68
V2.0\u000a
g2
VO126
g3
tp33
a(I2
I3
I67
V2.0\u000a
g2
VO167
g3
tp34
a(I2
I32
I88
V5.0\u000a
g2
VO119
g3
tp35
a(I2
I33
I95
V5.0\u000a
g2
VH40
g3
tp36
a(I2
I22
I88
V3.0\u000a
g2
VH42
g3
tp37
a(I2
I2
I83
V2.0\u000a
g2
VO176
g3
tp38
a(I2
I4
I92
V2.0\u000a
g2
VO160
g3
tp39
a(I2
I30
I85
V4.0\u000a
g2
VO149
g3
tp40
a(I2
I13
I80
V3.0\u000a
g2
VO162
g3
tp41
a(I2
I28
I92
V4.0\u000a
g2
VH51
g3
tp42
a(I2
I5
I66
V1.0\u000a
g2
VO96
g3
tp43
a(I2
I41
I97
V5.0\u000a
g2
VO104
g3
tp44
a(I2
I8
I71
V2.0\u000a
g2
VO27
g3
tp45
a(I2
I5
I65
V2.0\u000a
g2
VO185
g3
tp46
a(I2
I2
I74
V2.0\u000a
g2
VO41
g3
tp47
a(I2
I25
I97
V4.0\u000a
g2
VO78
g3
tp48
a(I2
I3
I70
V1.0\u000a
g2
VO37
g3
tp49
a(I2
I167
I91
V17.0\u000a
g2
VO111
g3
tp50
a(I2
I184
I109
V8.0\u000a
g2
VH48
g3
tp51
a(I2
I1361
I127
V120.0\u000a
g2
VO142
g3
tp52
a(I2
I175
I109
V10.0\u000a
g2
VH19
g3
tp53
a(I2
I101
I113
V9.0\u000a
g2
VO15
g3
tp54
a(I2
I36
I85
V4.0\u000a
g2
VO165
g3
tp55
a(I2
I23
I77
V4.0\u000a
g2
VO53
g3
tp56
a(I2
I1043
I122
V32.0\u000a
g2
VO129
g3
tp57
a(I2
I70
I103
V7.0\u000a
g2
VO75
g3
tp58
a(I2
I13
I80
V2.0\u000a
g2
VO130
g3
tp59
a(I2
I36
I80
V5.0\u000a
g2
VO156
g3
tp60
a(I2
I12
I76
V2.0\u000a
g2
VO143
g3
tp61
a(I2
I1019
I124
V26.0\u000a
g2
VH14
g3
tp62
a(I2
I29
I89
V3.0\u000a
g2
VO71
g3
tp63
a(I2
I1
I61
V2.0\u000a
g2
VH53
g3
tp64
a(I2
I22
I68
V4.0\u000a
g2
VO151
g3
tp65
a(I2
I20
I104
V3.0\u000a
g2
VO100
g3
tp66
a(I2
I44
I82
V5.0\u000a
g2
VO25
g3
tp67
a(I2
I64
I103
V5.0\u000a
g2
VO102
g3
tp68
a(I2
I21
I70
V2.0\u000a
g2
VO69
g3
tp69
a(I2
I63
I109
V6.0\u000a
g2
VH30
g3
tp70
a(I2
I7
I66
V2.0\u000a
g2
VH43
g3
tp71
a(I2
I6
I60
V2.0\u000a
g2
VO116
g3
tp72
a(I2
I117
I113
V12.0\u000a
g2
VH31
g3
tp73
a(I2
I239
I113
V11.0\u000a
g2
VH8
g3
tp74
a(I2
I10
I75
V2.0\u000a
g2
VO64
g3
tp75
a(I2
I178
I121
V8.0\u000a
g2
VH18
g3
tp76
a(I2
I17
I76
V3.0\u000a
g2
VH38
g3
tp77
a(I2
I12
I82
V2.0\u000a
g2
VH37
g3
tp78
a(I2
I4
I63
V1.0\u000a
g2
VH55
g3
tp79
a(I2
I903
I121
V29.0\u000a
g2
VO157
g3
tp80
a(I2
I6
I77
V2.0\u000a
g2
VO86
g3
tp81
a(I2
I147
I110
V11.0\u000a
g2
VH25
g3
tp82
a(I2
I47
I96
V5.0\u000a
g2
VOR
g3
tp83
a(I2
I21
I83
V3.0\u000a
g2
VO88
g3
tp84
a(I2
I4
I69
V2.0\u000a
g2
VH39
g3
tp85
a(I2
I28
I89
V3.0\u000a
g2
VO113
g3
tp86
a(I2
I9
I73
V2.0\u000a
g2
VO108
g3
tp87
a(I2
I29
I85
V3.0\u000a
g2
VO55
g3
tp88
a(I2
I40
I107
V4.0\u000a
g2
VH34
g3
tp89
a(I2
I96
I102
V10.0\u000a
g2
VH28
g3
tp90
a(I2
I19
I90
V3.0\u000a
g2
VO139
g3
tp91
a(I2
I1253
I127
V35.0\u000a
g2
VH16
g3
tp92
a(I2
I223
I129
V13.0\u000a
g2
VH5
g3
tp93
a(I2
I15
I96
V3.0\u000a
g2
VH23
g3
tp94
a(I2
I10
I92
V2.0\u000a
g2
VO171
g3
tp95
a(I2
I391
I105
V28.0\u000a
g2
VH2
g3
tp96
a(I2
I78
I121
V6.0\u000a
g2
VO9
g3
tp97
a(I2
I5
I66
V1.0\u000a
g2
VO28
g3
tp98
a(I2
I345
I110
V16.0\u000a
g2
VH45
g3
tp99
a(I2
I147
I115
V10.0\u000a
g2
VH21
g3
tp100
a(I2
I41
I104
V4.0\u000a
g2
VH32
g3
tp101
a(I2
I282
I125
V20.0\u000a
g2
VO6
g3
tp102
a(I2
I2
I62
V1.0\u000a
g2
VH47
g3
tp103
a.