(lp1
(I9
I54
I109
V3.0\u000a
VO124
p2
VH12
p3
S'https://www.github.com/superphy#AntimicrobialResistanceGene'
p4
tp5
a(I9
I185
I124
V9.0\u000a
g2
VO8
p6
g4
tp7
a(I9
I33
I99
V3.0\u000a
g2
VH40
p8
g4
tp9
a(I9
I70
I105
V3.0\u000a
g2
VO75
p10
g4
tp11
a(I9
I51
I109
V4.0\u000a
g2
VO117
p12
g4
tp13
a(I9
I20
I80
V3.0\u000a
g2
VO112
p14
g4
tp15
a(I9
I7
I89
V2.0\u000a
g2
VH29
p16
g4
tp17
a(I9
I84
I121
V5.0\u000a
g2
VO153
p18
g4
tp19
a(I9
I17
I96
V3.0\u000a
g2
VO81
p20
g4
tp21
a(I9
I21
I84
V3.0\u000a
g2
VO22
p22
g4
tp23
a(I9
I148
I138
V6.0\u000a
g2
VH9
p24
g4
tp25
a(I9
I121
I109
V5.0\u000a
g2
VO17
p26
g4
tp27
a(I9
I223
I130
V8.0\u000a
g2
VH5
p28
g4
tp29
a(I9
I36
I85
V3.0\u000a
g2
VO156
p30
g4
tp31
a(I9
I8
I88
V2.0\u000a
g2
VO120
p32
g4
tp33
a(I9
I43
I102
V4.0\u000a
g2
VH27
p34
g4
tp35
a(I9
I21
I89
V3.0\u000a
g2
VO83
p36
g4
tp37
a(I9
I6
I73
V1.0\u000a
g2
VO116
p38
g4
tp39
a(I9
I117
I114
V5.0\u000a
g2
VH31
p40
g4
tp41
a(I9
I21
I88
V2.0\u000a
g2
VO88
p42
g4
tp43
a(I9
I6
I84
V2.0\u000a
g2
VO82
p44
g4
tp45
a(I9
I22
I94
V3.0\u000a
g2
VO23
p46
g4
tp47
a(I9
I13
I82
V2.0\u000a
g2
VO130
p48
g4
tp49
a(I9
I1253
I128
V31.0\u000a
g2
VH16
p50
g4
tp51
a(I9
I1043
I123
V27.0\u000a
g2
VO129
p52
g4
tp53
a(I9
I33
I88
V3.0\u000a
g2
VH49
p54
g4
tp55
a(I9
I5
I75
V2.0\u000a
g2
VO185
p56
g4
tp57
a(I9
I302
I137
V9.0\u000a
g2
VO2
p58
g4
tp59
a(I9
I175
I110
V6.0\u000a
g2
VH19
p60
g4
tp61
a(I9
I15
I100
V2.0\u000a
g2
VH23
p62
g4
tp63
a(I9
I7
I87
V2.0\u000a
g2
VO35
p64
g4
tp65
a(I9
I184
I111
V6.0\u000a
g2
VH48
p66
g4
tp67
a(I9
I13
I81
V2.0\u000a
g2
VO169
p68
g4
tp69
a(I9
I147
I111
V5.0\u000a
g2
VH25
p70
g4
tp71
a(I9
I2
I73
V2.0\u000a
g2
VH36
p72
g4
tp73
a(I9
I13
I82
V2.0\u000a
g2
VO162
p74
g4
tp75
a(I9
I5
I77
V1.0\u000a
g2
VO175
p76
g4
tp77
a(I9
I167
I95
V6.0\u000a
g2
VO111
p78
g4
tp79
a(I9
I30
I92
V3.0\u000a
g2
VO38
p80
g4
tp81
a(I9
I3
I74
V2.0\u000a
g2
VO167
p82
g4
tp83
a(I9
I64
I105
V3.0\u000a
g2
VO102
p84
g4
tp85
a(I9
I28
I98
V3.0\u000a
g2
VH26
p86
g4
tp87
a(I9
I18
I79
V2.0\u000a
g2
VO76
p88
g4
tp89
a(I9
I29
I94
V2.0\u000a
g2
VO71
p90
g4
tp91
a(I9
I9
I87
V3.0\u000a
g2
VO85
p92
g4
tp93
a(I9
I36
I90
V3.0\u000a
g2
VO165
p94
g4
tp95
a(I9
I2
I77
V1.0\u000a
g2
VH24
p96
g4
tp97
a(I9
I41
I103
V3.0\u000a
g2
VO104
p98
g4
tp99
a(I9
I161
I123
V8.0\u000a
g2
VO7
p100
g4
tp101
a(I9
I2
I90
V2.0\u000a
g2
VO176
p102
g4
tp103
a(I9
I101
I114
V4.0\u000a
g2
VO15
p104
g4
tp105
a(I9
I3
I82
V1.0\u000a
g2
VO63
p106
g4
tp107
a(I9
I7
I77
V2.0\u000a
g2
VH43
p108
g4
tp109
a(I9
I70
I88
V4.0\u000a
g2
VO145
p110
g4
tp111
a(I9
I24
I81
V2.0\u000a
g2
VO84
p112
g4
tp113
a(I9
I1361
I127
V34.0\u000a
g2
VO142
p114
g4
tp115
a(I9
I25
I100
V3.0\u000a
g2
VO78
p116
g4
tp117
a(I9
I20
I107
V2.0\u000a
g2
VO100
p118
g4
tp119
a(I9
I63
I111
V3.0\u000a
g2
VH30
p120
g4
tp121
a(I9
I5
I77
V2.0\u000a
g2
VO28
p122
g4
tp123
a(I9
I80
I102
V5.0\u000a
g2
VO18
p124
g4
tp125
a(I9
I10
I91
V2.0\u000a
g2
VH52
p126
g4
tp127
a(I9
I26
I90
V2.0\u000a
g2
VO146
p128
g4
tp129
a(I9
I5
I80
V2.0\u000a
g2
VO107
p130
g4
tp131
a(I9
I91
I85
V4.0\u000a
g2
VO121
p132
g4
tp133
a(I9
I3
I81
V2.0\u000a
g2
VO37
p134
g4
tp135
a(I9
I13
I79
V2.0\u000a
g2
VH41
p136
g4
tp137
a(I9
I178
I122
V6.0\u000a
g2
VH18
p138
g4
tp139
a(I9
I391
I107
V11.0\u000a
g2
VH2
p140
g4
tp141
a(I9
I41
I108
V3.0\u000a
g2
VH32
p142
g4
tp143
a(I9
I291
I103
V8.0\u000a
g2
VO26
p144
g4
tp145
a(I9
I22
I77
V3.0\u000a
g2
VO151
p146
g4
tp147
a(I9
I381
I114
V11.0\u000a
g2
VH11
p148
g4
tp149
a(I9
I8
I82
V3.0\u000a
g2
VO24
p150
g4
tp151
a(I9
I147
I116
V6.0\u000a
g2
VH21
p152
g4
tp153
a(I9
I4
I96
V2.0\u000a
g2
VO160
p154
g4
tp155
a(I9
I23
I83
V2.0\u000a
g2
VO53
p156
g4
tp157
a(I9
I17
I94
V3.0\u000a
g2
VO11
p158
g4
tp159
a(I9
I223
I115
V7.0\u000a
g2
VO16
p160
g4
tp161
a(I9
I612
I150
V44.0\u000a
g2
VO4
p162
g4
tp163
a(I9
I8
I80
V2.0\u000a
g2
VO27
p164
g4
tp165
a(I9
I356
I127
V11.0\u000a
g2
VH1
p166
g4
tp167
a(I9
I45
I101
V4.0\u000a
g2
VO128
p168
g4
tp169
a(I9
I201
I130
V7.0\u000a
g2
VH6
p170
g4
tp171
a(I9
I6
I76
V2.0\u000a
g2
VO126
p172
g4
tp173
a(I9
I3
I81
V1.0\u000a
g2
VO179
p174
g4
tp175
a(I9
I19
I91
V3.0\u000a
g2
VO139
p176
g4
tp177
a(I9
I96
I106
V4.0\u000a
g2
VH28
p178
g4
tp179
a(I9
I2
I74
V1.0\u000a
g2
VH47
p180
g4
tp181
a(I9
I345
I111
V10.0\u000a
g2
VH45
p182
g4
tp183
a(I9
I9
I82
V2.0\u000a
g2
VO108
p184
g4
tp185
a(I9
I23
I95
V2.0\u000a
g2
VH17
p186
g4
tp187
a(I9
I11
I87
V2.0\u000a
g2
VO33
p188
g4
tp189
a(I9
I52
I97
V3.0\u000a
g2
VO91
p190
g4
tp191
a(I9
I20
I81
V2.0\u000a
g2
VO177
p192
g4
tp193
a(I9
I28
I97
V2.0\u000a
g2
VH51
p194
g4
tp195
a(I9
I6
I86
V2.0\u000a
g2
VO62
p196
g4
tp197
a(I9
I12
I81
V2.0\u000a
g2
VO143
p198
g4
tp199
a(I9
I28
I93
V2.0\u000a
g2
VO113
p200
g4
tp201
a(I9
I4
I77
V2.0\u000a
g2
VH39
p202
g4
tp203
a(I9
I30
I89
V2.0\u000a
g2
VO149
p204
g4
tp205
a(I9
I17
I93
V2.0\u000a
g2
VO115
p206
g4
tp207
a(I9
I78
I122
V4.0\u000a
g2
VO9
p208
g4
tp209
a(I9
I146
I133
V7.0\u000a
g2
VH10
p210
g4
tp211
a(I9
I5
I76
V2.0\u000a
g2
VO96
p212
g4
tp213
a(I9
I10
I92
V2.0\u000a
g2
VO131
p214
g4
tp215
a(I9
I1019
I125
V27.0\u000a
g2
VH14
p216
g4
tp217
a(I9
I40
I110
V3.0\u000a
g2
VH34
p218
g4
tp219
a(I9
I10
I83
V2.0\u000a
g2
VO64
p220
g4
tp221
a(I9
I90
I104
V4.0\u000a
g2
VO45
p222
g4
tp223
a(I9
I120
I100
V5.0\u000a
g2
VO1
p224
g4
tp225
a(I9
I239
I114
V7.0\u000a
g2
VH8
p226
g4
tp227
a(I9
I1
I73
V1.0\u000a
g2
VH53
p228
g4
tp229
a(I9
I50
I93
V3.0\u000a
g2
VO5
p230
g4
tp231
a(I9
I260
I94
V8.0\u000a
g2
VO103
p232
g4
tp233
a(I9
I903
I121
V23.0\u000a
g2
VO157
p234
g4
tp235
a(I9
I14
I83
V2.0\u000a
g2
VO109
p236
g4
tp237
a(I9
I2
I84
V2.0\u000a
g2
VO41
p238
g4
tp239
a(I9
I18
I77
V2.0\u000a
g2
VH56
p240
g4
tp241
a(I9
I21
I78
V3.0\u000a
g2
VO69
p242
g4
tp243
a(I9
I1
I74
V2.0\u000a
g2
VH3
p244
g4
tp245
a(I9
I6
I82
V2.0\u000a
g2
VO86
p246
g4
tp247
a(I9
I47
I107
V3.0\u000a
g2
VO21
p248
g4
tp249
a(I9
I1110
I134
V28.0\u000a
g2
VH7
p250
g4
tp251
a(I9
I5
I79
V1.0\u000a
g2
VO36
p252
g4
tp253
a(I9
I13
I80
V2.0\u000a
g2
VO12
p254
g4
tp255
a(I9
I4
I73
V2.0\u000a
g2
VH55
p256
g4
tp257
a(I9
I122
I96
V5.0\u000a
g2
VO147
p258
g4
tp259
a(I9
I10
I98
V3.0\u000a
g2
VO171
p260
g4
tp261
a(I9
I47
I99
V3.0\u000a
g2
VOR
p262
g4
tp263
a(I9
I29
I90
V2.0\u000a
g2
VO55
p264
g4
tp265
a(I9
I4
I89
V2.0\u000a
g2
VO110
p266
g4
tp267
a(I9
I4
I82
V2.0\u000a
g2
VH46
p268
g4
tp269
a(I9
I282
I126
V9.0\u000a
g2
VO6
p270
g4
tp271
a(I9
I21
I93
V3.0\u000a
g2
VH33
p272
g4
tp273
a(I9
I14
I87
V3.0\u000a
g2
VO10
p274
g4
tp275
a(I9
I22
I92
V2.0\u000a
g2
VH42
p276
g4
tp277
a(I9
I35
I105
V3.0\u000a
g2
VH15
p278
g4
tp279
a(I9
I13
I83
V2.0\u000a
g2
VO51
p280
g4
tp281
a(I9
I32
I86
V2.0\u000a
g2
VO174
p282
g4
tp283
a(I9
I7
I80
V1.0\u000a
g2
VO127
p284
g4
tp285
a(I9
I32
I91
V3.0\u000a
g2
VO119
p286
g4
tp287
a(I9
I12
I89
V2.0\u000a
g2
VH37
p288
g4
tp289
a(I9
I44
I87
V3.0\u000a
g2
VO25
p290
g4
tp291
a(I9
I29
I89
V3.0\u000a
g2
VO118
p292
g4
tp293
a(I9
I17
I85
V2.0\u000a
g2
VH38
p294
g4
tp295
a(I9
I35
I94
V3.0\u000a
g2
VH20
p296
g4
tp297
a(I9
I802
I168
V23.0\u000a
g2
VH4
p298
g4
tp299
a(I54
I185
I134
V8.0\u000a
g3
g6
g4
tp300
a(I54
I33
I117
V4.0\u000a
g3
g8
g4
tp301
a(I54
I70
I124
V4.0\u000a
g3
g10
g4
tp302
a(I54
I51
I121
V5.0\u000a
g3
g12
g4
tp303
a(I54
I20
I109
V3.0\u000a
g3
g14
g4
tp304
a(I54
I7
I113
V4.0\u000a
g3
g16
g4
tp305
a(I54
I84
I130
V6.0\u000a
g3
g18
g4
tp306
a(I54
I17
I115
V3.0\u000a
g3
g20
g4
tp307
a(I54
I21
I111
V3.0\u000a
g3
g22
g4
tp308
a(I54
I148
I148
V8.0\u000a
g3
g24
g4
tp309
a(I54
I121
I121
V6.0\u000a
g3
g26
g4
tp310
a(I54
I223
I138
V9.0\u000a
g3
g28
g4
tp311
a(I54
I36
I114
V4.0\u000a
g3
g30
g4
tp312
a(I54
I8
I116
V3.0\u000a
g3
g32
g4
tp313
a(I54
I43
I116
V5.0\u000a
g3
g34
g4
tp314
a(I54
I21
I114
V4.0\u000a
g3
g36
g4
tp315
a(I54
I6
I106
V3.0\u000a
g3
g38
g4
tp316
a(I54
I117
I129
V6.0\u000a
g3
g40
g4
tp317
a(I54
I21
I110
V3.0\u000a
g3
g42
g4
tp318
a(I54
I6
I110
V4.0\u000a
g3
g44
g4
tp319
a(I54
I22
I117
V4.0\u000a
g3
g46
g4
tp320
a(I54
I13
I108
V3.0\u000a
g3
g48
g4
tp321
a(I54
I1253
I139
V32.0\u000a
g3
g50
g4
tp322
a(I54
I1043
I136
V28.0\u000a
g3
g52
g4
tp323
a(I54
I33
I113
V5.0\u000a
g3
g54
g4
tp324
a(I54
I5
I108
V3.0\u000a
g3
g56
g4
tp325
a(I54
I302
I146
V11.0\u000a
g3
g58
g4
tp326
a(I54
I175
I123
V7.0\u000a
g3
g60
g4
tp327
a(I54
I15
I116
V3.0\u000a
g3
g62
g4
tp328
a(I54
I7
I108
V4.0\u000a
g3
g64
g4
tp329
a(I54
I184
I125
V8.0\u000a
g3
g66
g4
tp330
a(I54
I13
I111
V4.0\u000a
g3
g68
g4
tp331
a(I54
I147
I124
V7.0\u000a
g3
g70
g4
tp332
a(I54
I2
I106
V3.0\u000a
g3
g72
g4
tp333
a(I54
I13
I109
V4.0\u000a
g3
g74
g4
tp334
a(I54
I5
I108
V3.0\u000a
g3
g76
g4
tp335
a(I54
I167
I112
V7.0\u000a
g3
g78
g4
tp336
a(I54
I30
I116
V3.0\u000a
g3
g80
g4
tp337
a(I54
I3
I107
V3.0\u000a
g3
g82
g4
tp338
a(I54
I64
I119
V4.0\u000a
g3
g84
g4
tp339
a(I54
I28
I117
V4.0\u000a
g3
g86
g4
tp340
a(I54
I18
I113
V4.0\u000a
g3
g88
g4
tp341
a(I54
I29
I111
V3.0\u000a
g3
g90
g4
tp342
a(I54
I9
I111
V4.0\u000a
g3
g92
g4
tp343
a(I54
I36
I112
V4.0\u000a
g3
g94
g4
tp344
a(I54
I2
I108
V3.0\u000a
g3
g96
g4
tp345
a(I54
I41
I113
V4.0\u000a
g3
g98
g4
tp346
a(I54
I161
I132
V7.0\u000a
g3
g100
g4
tp347
a(I54
I2
I113
V3.0\u000a
g3
g102
g4
tp348
a(I54
I101
I125
V6.0\u000a
g3
g104
g4
tp349
a(I54
I3
I110
V3.0\u000a
g3
g106
g4
tp350
a(I54
I7
I107
V3.0\u000a
g3
g108
g4
tp351
a(I54
I70
I114
V4.0\u000a
g3
g110
g4
tp352
a(I54
I24
I112
V4.0\u000a
g3
g112
g4
tp353
a(I54
I1361
I139
V35.0\u000a
g3
g114
g4
tp354
a(I54
I25
I117
V4.0\u000a
g3
g116
g4
tp355
a(I54
I20
I118
V4.0\u000a
g3
g118
g4
tp356
a(I54
I63
I124
V5.0\u000a
g3
g120
g4
tp357
a(I54
I5
I108
V4.0\u000a
g3
g122
g4
tp358
a(I54
I80
I114
V5.0\u000a
g3
g124
g4
tp359
a(I54
I10
I112
V3.0\u000a
g3
g126
g4
tp360
a(I54
I26
I112
V4.0\u000a
g3
g128
g4
tp361
a(I54
I5
I106
V4.0\u000a
g3
g130
g4
tp362
a(I54
I91
I112
V5.0\u000a
g3
g132
g4
tp363
a(I54
I3
I111
V3.0\u000a
g3
g134
g4
tp364
a(I54
I13
I110
V4.0\u000a
g3
g136
g4
tp365
a(I54
I178
I133
V7.0\u000a
g3
g138
g4
tp366
a(I54
I391
I122
V12.0\u000a
g3
g140
g4
tp367
a(I54
I41
I119
V5.0\u000a
g3
g142
g4
tp368
a(I54
I291
I120
V10.0\u000a
g3
g144
g4
tp369
a(I54
I22
I106
V4.0\u000a
g3
g146
g4
tp370
a(I54
I381
I128
V12.0\u000a
g3
g148
g4
tp371
a(I54
I8
I110
V4.0\u000a
g3
g150
g4
tp372
a(I54
I147
I126
V7.0\u000a
g3
g152
g4
tp373
a(I54
I4
I117
V3.0\u000a
g3
g154
g4
tp374
a(I54
I23
I109
V3.0\u000a
g3
g156
g4
tp375
a(I54
I17
I116
V4.0\u000a
g3
g158
g4
tp376
a(I54
I223
I128
V9.0\u000a
g3
g160
g4
tp377
a(I54
I612
I158
V17.0\u000a
g3
g162
g4
tp378
a(I54
I8
I108
V3.0\u000a
g3
g164
g4
tp379
a(I54
I356
I139
V12.0\u000a
g3
g166
g4
tp380
a(I54
I45
I117
V5.0\u000a
g3
g168
g4
tp381
a(I54
I201
I140
V8.0\u000a
g3
g170
g4
tp382
a(I54
I6
I106
V3.0\u000a
g3
g172
g4
tp383
a(I54
I3
I109
V3.0\u000a
g3
g174
g4
tp384
a(I54
I19
I113
V4.0\u000a
g3
g176
g4
tp385
a(I54
I96
I122
V6.0\u000a
g3
g178
g4
tp386
a(I54
I2
I107
V3.0\u000a
g3
g180
g4
tp387
a(I54
I345
I122
V11.0\u000a
g3
g182
g4
tp388
a(I54
I9
I109
V4.0\u000a
g3
g184
g4
tp389
a(I54
I23
I113
V4.0\u000a
g3
g186
g4
tp390
a(I54
I11
I113
V3.0\u000a
g3
g188
g4
tp391
a(I54
I52
I119
V5.0\u000a
g3
g190
g4
tp392
a(I54
I20
I111
V4.0\u000a
g3
g192
g4
tp393
a(I54
I28
I116
V4.0\u000a
g3
g194
g4
tp394
a(I54
I6
I112
V4.0\u000a
g3
g196
g4
tp395
a(I54
I12
I109
V3.0\u000a
g3
g198
g4
tp396
a(I54
I28
I114
V4.0\u000a
g3
g200
g4
tp397
a(I54
I4
I108
V3.0\u000a
g3
g202
g4
tp398
a(I54
I30
I114
V4.0\u000a
g3
g204
g4
tp399
a(I54
I17
I114
V4.0\u000a
g3
g206
g4
tp400
a(I54
I78
I127
V5.0\u000a
g3
g208
g4
tp401
a(I54
I146
I140
V7.0\u000a
g3
g210
g4
tp402
a(I54
I5
I107
V4.0\u000a
g3
g212
g4
tp403
a(I54
I10
I112
V4.0\u000a
g3
g214
g4
tp404
a(I54
I1019
I137
V27.0\u000a
g3
g216
g4
tp405
a(I54
I40
I124
V4.0\u000a
g3
g218
g4
tp406
a(I54
I10
I106
V3.0\u000a
g3
g220
g4
tp407
a(I54
I90
I122
V5.0\u000a
g3
g222
g4
tp408
a(I54
I120
I120
V6.0\u000a
g3
g224
g4
tp409
a(I54
I239
I128
V9.0\u000a
g3
g226
g4
tp410
a(I54
I1
I106
V3.0\u000a
g3
g228
g4
tp411
a(I54
I50
I116
V5.0\u000a
g3
g230
g4
tp412
a(I54
I260
I115
V9.0\u000a
g3
g232
g4
tp413
a(I54
I903
I130
V24.0\u000a
g3
g234
g4
tp414
a(I54
I14
I111
V4.0\u000a
g3
g236
g4
tp415
a(I54
I2
I114
V3.0\u000a
g3
g238
g4
tp416
a(I54
I18
I109
V3.0\u000a
g3
g240
g4
tp417
a(I54
I21
I106
V3.0\u000a
g3
g242
g4
tp418
a(I54
I1
I106
V3.0\u000a
g3
g244
g4
tp419
a(I54
I6
I110
V4.0\u000a
g3
g246
g4
tp420
a(I54
I47
I123
V5.0\u000a
g3
g248
g4
tp421
a(I54
I1110
I143
V29.0\u000a
g3
g250
g4
tp422
a(I54
I5
I110
V3.0\u000a
g3
g252
g4
tp423
a(I54
I13
I106
V3.0\u000a
g3
g254
g4
tp424
a(I54
I4
I106
V3.0\u000a
g3
g256
g4
tp425
a(I54
I122
I117
V6.0\u000a
g3
g258
g4
tp426
a(I54
I10
I115
V4.0\u000a
g3
g260
g4
tp427
a(I54
I47
I114
V5.0\u000a
g3
g262
g4
tp428
a(I54
I29
I112
V4.0\u000a
g3
g264
g4
tp429
a(I54
I4
I114
V3.0\u000a
g3
g266
g4
tp430
a(I54
I4
I110
V3.0\u000a
g3
g268
g4
tp431
a(I54
I282
I135
V10.0\u000a
g3
g270
g4
tp432
a(I54
I21
I112
V4.0\u000a
g3
g272
g4
tp433
a(I54
I14
I111
V3.0\u000a
g3
g274
g4
tp434
a(I54
I22
I115
V3.0\u000a
g3
g276
g4
tp435
a(I54
I35
I122
V4.0\u000a
g3
g278
g4
tp436
a(I54
I13
I109
V4.0\u000a
g3
g280
g4
tp437
a(I54
I32
I109
V4.0\u000a
g3
g282
g4
tp438
a(I54
I7
I107
V3.0\u000a
g3
g284
g4
tp439
a(I54
I32
I118
V4.0\u000a
g3
g286
g4
tp440
a(I54
I12
I111
V4.0\u000a
g3
g288
g4
tp441
a(I54
I44
I112
V4.0\u000a
g3
g290
g4
tp442
a(I54
I29
I112
V4.0\u000a
g3
g292
g4
tp443
a(I54
I17
I114
V3.0\u000a
g3
g294
g4
tp444
a(I54
I35
I116
V4.0\u000a
g3
g296
g4
tp445
a(I54
I802
I169
V23.0\u000a
g3
g298
g4
tp446
a(I185
I33
I127
V8.0\u000a
g6
g8
g4
tp447
a(I185
I70
I132
V9.0\u000a
g6
g10
g4
tp448
a(I185
I51
I128
V7.0\u000a
g6
g12
g4
tp449
a(I185
I20
I126
V6.0\u000a
g6
g14
g4
tp450
a(I185
I7
I125
V6.0\u000a
g6
g16
g4
tp451
a(I185
I84
I135
V8.0\u000a
g6
g18
g4
tp452
a(I185
I17
I125
V6.0\u000a
g6
g20
g4
tp453
a(I185
I21
I123
V6.0\u000a
g6
g22
g4
tp454
a(I185
I148
I147
V11.0\u000a
g6
g24
g4
tp455
a(I185
I121
I129
V9.0\u000a
g6
g26
g4
tp456
a(I185
I223
I147
V12.0\u000a
g6
g28
g4
tp457
a(I185
I36
I125
V7.0\u000a
g6
g30
g4
tp458
a(I185
I8
I126
V6.0\u000a
g6
g32
g4
tp459
a(I185
I43
I126
V7.0\u000a
g6
g34
g4
tp460
a(I185
I21
I125
V7.0\u000a
g6
g36
g4
tp461
a(I185
I6
I123
V7.0\u000a
g6
g38
g4
tp462
a(I185
I117
I139
V9.0\u000a
g6
g40
g4
tp463
a(I185
I21
I123
V7.0\u000a
g6
g42
g4
tp464
a(I185
I6
I126
V7.0\u000a
g6
g44
g4
tp465
a(I185
I22
I126
V7.0\u000a
g6
g46
g4
tp466
a(I185
I13
I123
V7.0\u000a
g6
g48
g4
tp467
a(I185
I1253
I149
V36.0\u000a
g6
g50
g4
tp468
a(I185
I1043
I143
V31.0\u000a
g6
g52
g4
tp469
a(I185
I33
I125
V7.0\u000a
g6
g54
g4
tp470
a(I185
I5
I123
V6.0\u000a
g6
g56
g4
tp471
a(I185
I302
I152
V14.0\u000a
g6
g58
g4
tp472
a(I185
I175
I132
V11.0\u000a
g6
g60
g4
tp473
a(I185
I15
I127
V7.0\u000a
g6
g62
g4
tp474
a(I185
I7
I123
V6.0\u000a
g6
g64
g4
tp475
a(I185
I184
I136
V10.0\u000a
g6
g66
g4
tp476
a(I185
I13
I124
V7.0\u000a
g6
g68
g4
tp477
a(I185
I147
I137
V10.0\u000a
g6
g70
g4
tp478
a(I185
I2
I123
V7.0\u000a
g6
g72
g4
tp479
a(I185
I13
I124
V6.0\u000a
g6
g74
g4
tp480
a(I185
I5
I123
V6.0\u000a
g6
g76
g4
tp481
a(I185
I167
I125
V11.0\u000a
g6
g78
g4
tp482
a(I185
I30
I128
V7.0\u000a
g6
g80
g4
tp483
a(I185
I3
I123
V7.0\u000a
g6
g82
g4
tp484
a(I185
I64
I131
V8.0\u000a
g6
g84
g4
tp485
a(I185
I28
I127
V8.0\u000a
g6
g86
g4
tp486
a(I185
I18
I127
V6.0\u000a
g6
g88
g4
tp487
a(I185
I29
I127
V7.0\u000a
g6
g90
g4
tp488
a(I185
I9
I125
V7.0\u000a
g6
g92
g4
tp489
a(I185
I36
I126
V7.0\u000a
g6
g94
g4
tp490
a(I185
I2
I123
V6.0\u000a
g6
g96
g4
tp491
a(I185
I41
I124
V8.0\u000a
g6
g98
g4
tp492
a(I185
I161
I141
V11.0\u000a
g6
g100
g4
tp493
a(I185
I2
I123
V6.0\u000a
g6
g102
g4
tp494
a(I185
I101
I135
V9.0\u000a
g6
g104
g4
tp495
a(I185
I3
I123
V6.0\u000a
g6
g106
g4
tp496
a(I185
I7
I123
V7.0\u000a
g6
g108
g4
tp497
a(I185
I70
I126
V8.0\u000a
g6
g110
g4
tp498
a(I185
I24
I124
V8.0\u000a
g6
g112
g4
tp499
a(I185
I1361
I149
V39.0\u000a
g6
g114
g4
tp500
a(I185
I25
I127
V6.0\u000a
g6
g116
g4
tp501
a(I185
I20
I134
V8.0\u000a
g6
g118
g4
tp502
a(I185
I63
I131
V7.0\u000a
g6
g120
g4
tp503
a(I185
I5
I124
V6.0\u000a
g6
g122
g4
tp504
a(I185
I80
I132
V8.0\u000a
g6
g124
g4
tp505
a(I185
I10
I126
V6.0\u000a
g6
g126
g4
tp506
a(I185
I26
I127
V7.0\u000a
g6
g128
g4
tp507
a(I185
I5
I123
V7.0\u000a
g6
g130
g4
tp508
a(I185
I91
I123
V9.0\u000a
g6
g132
g4
tp509
a(I185
I3
I123
V7.0\u000a
g6
g134
g4
tp510
a(I185
I13
I123
V7.0\u000a
g6
g136
g4
tp511
a(I185
I178
I137
V11.0\u000a
g6
g138
g4
tp512
a(I185
I391
I133
V16.0\u000a
g6
g140
g4
tp513
a(I185
I41
I132
V8.0\u000a
g6
g142
g4
tp514
a(I185
I291
I128
V13.0\u000a
g6
g144
g4
tp515
a(I185
I22
I123
V7.0\u000a
g6
g146
g4
tp516
a(I185
I381
I135
V16.0\u000a
g6
g148
g4
tp517
a(I185
I8
I124
V7.0\u000a
g6
g150
g4
tp518
a(I185
I147
I130
V10.0\u000a
g6
g152
g4
tp519
a(I185
I4
I130
V7.0\u000a
g6
g154
g4
tp520
a(I185
I23
I123
V7.0\u000a
g6
g156
g4
tp521
a(I185
I17
I127
V6.0\u000a
g6
g158
g4
tp522
a(I185
I223
I139
V11.0\u000a
g6
g160
g4
tp523
a(I185
I612
I167
V21.0\u000a
g6
g162
g4
tp524
a(I185
I8
I124
V6.0\u000a
g6
g164
g4
tp525
a(I185
I356
I149
V15.0\u000a
g6
g166
g4
tp526
a(I185
I45
I126
V7.0\u000a
g6
g168
g4
tp527
a(I185
I201
I151
V11.0\u000a
g6
g170
g4
tp528
a(I185
I6
I123
V7.0\u000a
g6
g172
g4
tp529
a(I185
I3
I126
V7.0\u000a
g6
g174
g4
tp530
a(I185
I19
I127
V7.0\u000a
g6
g176
g4
tp531
a(I185
I96
I129
V9.0\u000a
g6
g178
g4
tp532
a(I185
I2
I123
V7.0\u000a
g6
g180
g4
tp533
a(I185
I345
I134
V15.0\u000a
g6
g182
g4
tp534
a(I185
I9
I124
V7.0\u000a
g6
g184
g4
tp535
a(I185
I23
I127
V7.0\u000a
g6
g186
g4
tp536
a(I185
I11
I123
V7.0\u000a
g6
g188
g4
tp537
a(I185
I52
I128
V8.0\u000a
g6
g190
g4
tp538
a(I185
I20
I125
V7.0\u000a
g6
g192
g4
tp539
a(I185
I28
I124
V7.0\u000a
g6
g194
g4
tp540
a(I185
I6
I125
V7.0\u000a
g6
g196
g4
tp541
a(I185
I12
I123
V7.0\u000a
g6
g198
g4
tp542
a(I185
I28
I126
V7.0\u000a
g6
g200
g4
tp543
a(I185
I4
I123
V7.0\u000a
g6
g202
g4
tp544
a(I185
I30
I126
V7.0\u000a
g6
g204
g4
tp545
a(I185
I17
I128
V7.0\u000a
g6
g206
g4
tp546
a(I185
I78
I138
V9.0\u000a
g6
g208
g4
tp547
a(I185
I146
I145
V11.0\u000a
g6
g210
g4
tp548
a(I185
I5
I123
V6.0\u000a
g6
g212
g4
tp549
a(I185
I10
I125
V7.0\u000a
g6
g214
g4
tp550
a(I185
I1019
I147
V30.0\u000a
g6
g216
g4
tp551
a(I185
I40
I130
V8.0\u000a
g6
g218
g4
tp552
a(I185
I10
I123
V7.0\u000a
g6
g220
g4
tp553
a(I185
I90
I129
V9.0\u000a
g6
g222
g4
tp554
a(I185
I120
I129
V9.0\u000a
g6
g224
g4
tp555
a(I185
I239
I134
V13.0\u000a
g6
g226
g4
tp556
a(I185
I1
I123
V6.0\u000a
g6
g228
g4
tp557
a(I185
I50
I128
V7.0\u000a
g6
g230
g4
tp558
a(I185
I260
I127
V13.0\u000a
g6
g232
g4
tp559
a(I185
I903
I140
V28.0\u000a
g6
g234
g4
tp560
a(I185
I14
I123
V6.0\u000a
g6
g236
g4
tp561
a(I185
I2
I125
V6.0\u000a
g6
g238
g4
tp562
a(I185
I18
I125
V7.0\u000a
g6
g240
g4
tp563
a(I185
I21
I123
V7.0\u000a
g6
g242
g4
tp564
a(I185
I1
I123
V6.0\u000a
g6
g244
g4
tp565
a(I185
I6
I124
V7.0\u000a
g6
g246
g4
tp566
a(I185
I47
I133
V8.0\u000a
g6
g248
g4
tp567
a(I185
I1110
I147
V33.0\u000a
g6
g250
g4
tp568
a(I185
I5
I125
V7.0\u000a
g6
g252
g4
tp569
a(I185
I13
I123
V7.0\u000a
g6
g254
g4
tp570
a(I185
I4
I123
V7.0\u000a
g6
g256
g4
tp571
a(I185
I122
I127
V10.0\u000a
g6
g258
g4
tp572
a(I185
I10
I125
V7.0\u000a
g6
g260
g4
tp573
a(I185
I47
I128
V8.0\u000a
g6
g262
g4
tp574
a(I185
I29
I126
V7.0\u000a
g6
g264
g4
tp575
a(I185
I4
I125
V6.0\u000a
g6
g266
g4
tp576
a(I185
I4
I123
V6.0\u000a
g6
g268
g4
tp577
a(I185
I282
I148
V13.0\u000a
g6
g270
g4
tp578
a(I185
I21
I124
V7.0\u000a
g6
g272
g4
tp579
a(I185
I14
I123
V6.0\u000a
g6
g274
g4
tp580
a(I185
I22
I129
V7.0\u000a
g6
g276
g4
tp581
a(I185
I35
I133
V8.0\u000a
g6
g278
g4
tp582
a(I185
I13
I123
V7.0\u000a
g6
g280
g4
tp583
a(I185
I32
I126
V8.0\u000a
g6
g282
g4
tp584
a(I185
I7
I124
V6.0\u000a
g6
g284
g4
tp585
a(I185
I32
I124
V8.0\u000a
g6
g286
g4
tp586
a(I185
I12
I126
V6.0\u000a
g6
g288
g4
tp587
a(I185
I44
I127
V7.0\u000a
g6
g290
g4
tp588
a(I185
I29
I125
V8.0\u000a
g6
g292
g4
tp589
a(I185
I17
I125
V7.0\u000a
g6
g294
g4
tp590
a(I185
I35
I123
V7.0\u000a
g6
g296
g4
tp591
a(I185
I802
I175
V27.0\u000a
g6
g298
g4
tp592
a(I33
I70
I113
V4.0\u000a
g8
g10
g4
tp593
a(I33
I51
I106
V4.0\u000a
g8
g12
g4
tp594
a(I33
I20
I99
V3.0\u000a
g8
g14
g4
tp595
a(I33
I7
I100
V3.0\u000a
g8
g16
g4
tp596
a(I33
I84
I123
V5.0\u000a
g8
g18
g4
tp597
a(I33
I17
I103
V3.0\u000a
g8
g20
g4
tp598
a(I33
I21
I94
V4.0\u000a
g8
g22
g4
tp599
a(I33
I148
I140
V7.0\u000a
g8
g24
g4
tp600
a(I33
I121
I111
V6.0\u000a
g8
g26
g4
tp601
a(I33
I223
I132
V8.0\u000a
g8
g28
g4
tp602
a(I33
I36
I97
V4.0\u000a
g8
g30
g4
tp603
a(I33
I8
I96
V2.0\u000a
g8
g32
g4
tp604
a(I33
I43
I104
V3.0\u000a
g8
g34
g4
tp605
a(I33
I21
I98
V3.0\u000a
g8
g36
g4
tp606
a(I33
I6
I94
V3.0\u000a
g8
g38
g4
tp607
a(I33
I117
I122
V5.0\u000a
g8
g40
g4
tp608
a(I33
I21
I97
V3.0\u000a
g8
g42
g4
tp609
a(I33
I6
I96
V2.0\u000a
g8
g44
g4
tp610
a(I33
I22
I101
V3.0\u000a
g8
g46
g4
tp611
a(I33
I13
I98
V3.0\u000a
g8
g48
g4
tp612
a(I33
I1253
I132
V31.0\u000a
g8
g50
g4
tp613
a(I33
I1043
I125
V27.0\u000a
g8
g52
g4
tp614
a(I33
I33
I99
V3.0\u000a
g8
g54
g4
tp615
a(I33
I5
I96
V3.0\u000a
g8
g56
g4
tp616
a(I33
I302
I138
V10.0\u000a
g8
g58
g4
tp617
a(I33
I175
I114
V7.0\u000a
g8
g60
g4
tp618
a(I33
I15
I108
V3.0\u000a
g8
g62
g4
tp619
a(I33
I7
I100
V3.0\u000a
g8
g64
g4
tp620
a(I33
I184
I117
V7.0\u000a
g8
g66
g4
tp621
a(I33
I13
I97
V3.0\u000a
g8
g68
g4
tp622
a(I33
I147
I119
V6.0\u000a
g8
g70
g4
tp623
a(I33
I2
I95
V2.0\u000a
g8
g72
g4
tp624
a(I33
I13
I97
V3.0\u000a
g8
g74
g4
tp625
a(I33
I5
I95
V3.0\u000a
g8
g76
g4
tp626
a(I33
I167
I101
V6.0\u000a
g8
g78
g4
tp627
a(I33
I30
I102
V3.0\u000a
g8
g80
g4
tp628
a(I33
I3
I97
V2.0\u000a
g8
g82
g4
tp629
a(I33
I64
I114
V5.0\u000a
g8
g84
g4
tp630
a(I33
I28
I103
V3.0\u000a
g8
g86
g4
tp631
a(I33
I18
I99
V3.0\u000a
g8
g88
g4
tp632
a(I33
I29
I103
V3.0\u000a
g8
g90
g4
tp633
a(I33
I9
I100
V3.0\u000a
g8
g92
g4
tp634
a(I33
I36
I101
V4.0\u000a
g8
g94
g4
tp635
a(I33
I2
I94
V3.0\u000a
g8
g96
g4
tp636
a(I33
I41
I106
V3.0\u000a
g8
g98
g4
tp637
a(I33
I161
I128
V7.0\u000a
g8
g100
g4
tp638
a(I33
I2
I98
V2.0\u000a
g8
g102
g4
tp639
a(I33
I101
I117
V5.0\u000a
g8
g104
g4
tp640
a(I33
I3
I98
V3.0\u000a
g8
g106
g4
tp641
a(I33
I7
I95
V2.0\u000a
g8
g108
g4
tp642
a(I33
I70
I101
V4.0\u000a
g8
g110
g4
tp643
a(I33
I24
I99
V4.0\u000a
g8
g112
g4
tp644
a(I33
I1361
I131
V35.0\u000a
g8
g114
g4
tp645
a(I33
I25
I108
V3.0\u000a
g8
g116
g4
tp646
a(I33
I20
I114
V3.0\u000a
g8
g118
g4
tp647
a(I33
I63
I115
V5.0\u000a
g8
g120
g4
tp648
a(I33
I5
I95
V3.0\u000a
g8
g122
g4
tp649
a(I33
I80
I116
V4.0\u000a
g8
g124
g4
tp650
a(I33
I10
I99
V2.0\u000a
g8
g126
g4
tp651
a(I33
I26
I103
V4.0\u000a
g8
g128
g4
tp652
a(I33
I5
I97
V3.0\u000a
g8
g130
g4
tp653
a(I33
I91
I98
V4.0\u000a
g8
g132
g4
tp654
a(I33
I3
I98
V3.0\u000a
g8
g134
g4
tp655
a(I33
I13
I96
V3.0\u000a
g8
g136
g4
tp656
a(I33
I178
I124
V7.0\u000a
g8
g138
g4
tp657
a(I33
I391
I112
V11.0\u000a
g8
g140
g4
tp658
a(I33
I41
I111
V4.0\u000a
g8
g142
g4
tp659
a(I33
I291
I109
V9.0\u000a
g8
g144
g4
tp660
a(I33
I22
I94
V3.0\u000a
g8
g146
g4
tp661
a(I33
I381
I118
V12.0\u000a
g8
g148
g4
tp662
a(I33
I8
I97
V3.0\u000a
g8
g150
g4
tp663
a(I33
I147
I120
V6.0\u000a
g8
g152
g4
tp664
a(I33
I4
I106
V3.0\u000a
g8
g154
g4
tp665
a(I33
I23
I97
V3.0\u000a
g8
g156
g4
tp666
a(I33
I17
I105
V4.0\u000a
g8
g158
g4
tp667
a(I33
I223
I121
V8.0\u000a
g8
g160
g4
tp668
a(I33
I612
I152
V17.0\u000a
g8
g162
g4
tp669
a(I33
I8
I96
V2.0\u000a
g8
g164
g4
tp670
a(I33
I356
I136
V11.0\u000a
g8
g166
g4
tp671
a(I33
I45
I103
V4.0\u000a
g8
g168
g4
tp672
a(I33
I201
I136
V7.0\u000a
g8
g170
g4
tp673
a(I33
I6
I95
V3.0\u000a
g8
g172
g4
tp674
a(I33
I3
I100
V2.0\u000a
g8
g174
g4
tp675
a(I33
I19
I107
V3.0\u000a
g8
g176
g4
tp676
a(I33
I96
I110
V5.0\u000a
g8
g178
g4
tp677
a(I33
I2
I96
V2.0\u000a
g8
g180
g4
tp678
a(I33
I345
I115
V11.0\u000a
g8
g182
g4
tp679
a(I33
I9
I95
V3.0\u000a
g8
g184
g4
tp680
a(I33
I23
I107
V3.0\u000a
g8
g186
g4
tp681
a(I33
I11
I96
V3.0\u000a
g8
g188
g4
tp682
a(I33
I52
I104
V4.0\u000a
g8
g190
g4
tp683
a(I33
I20
I98
V3.0\u000a
g8
g192
g4
tp684
a(I33
I28
I104
V3.0\u000a
g8
g194
g4
tp685
a(I33
I6
I98
V3.0\u000a
g8
g196
g4
tp686
a(I33
I12
I99
V3.0\u000a
g8
g198
g4
tp687
a(I33
I28
I99
V3.0\u000a
g8
g200
g4
tp688
a(I33
I4
I95
V2.0\u000a
g8
g202
g4
tp689
a(I33
I30
I103
V4.0\u000a
g8
g204
g4
tp690
a(I33
I17
I100
V3.0\u000a
g8
g206
g4
tp691
a(I33
I78
I124
V5.0\u000a
g8
g208
g4
tp692
a(I33
I146
I134
V6.0\u000a
g8
g210
g4
tp693
a(I33
I5
I94
V2.0\u000a
g8
g212
g4
tp694
a(I33
I10
I102
V2.0\u000a
g8
g214
g4
tp695
a(I33
I1019
I128
V27.0\u000a
g8
g216
g4
tp696
a(I33
I40
I116
V4.0\u000a
g8
g218
g4
tp697
a(I33
I10
I98
V3.0\u000a
g8
g220
g4
tp698
a(I33
I90
I107
V5.0\u000a
g8
g222
g4
tp699
a(I33
I120
I108
V5.0\u000a
g8
g224
g4
tp700
a(I33
I239
I121
V9.0\u000a
g8
g226
g4
tp701
a(I33
I1
I94
V3.0\u000a
g8
g228
g4
tp702
a(I33
I50
I104
V4.0\u000a
g8
g230
g4
tp703
a(I33
I260
I101
V8.0\u000a
g8
g232
g4
tp704
a(I33
I903
I125
V24.0\u000a
g8
g234
g4
tp705
a(I33
I14
I97
V3.0\u000a
g8
g236
g4
tp706
a(I33
I2
I97
V3.0\u000a
g8
g238
g4
tp707
a(I33
I18
I95
V3.0\u000a
g8
g240
g4
tp708
a(I33
I21
I94
V4.0\u000a
g8
g242
g4
tp709
a(I33
I1
I94
V3.0\u000a
g8
g244
g4
tp710
a(I33
I6
I97
V3.0\u000a
g8
g246
g4
tp711
a(I33
I47
I113
V4.0\u000a
g8
g248
g4
tp712
a(I33
I1110
I136
V29.0\u000a
g8
g250
g4
tp713
a(I33
I5
I99
V3.0\u000a
g8
g252
g4
tp714
a(I33
I13
I95
V3.0\u000a
g8
g254
g4
tp715
a(I33
I4
I94
V2.0\u000a
g8
g256
g4
tp716
a(I33
I122
I108
V5.0\u000a
g8
g258
g4
tp717
a(I33
I10
I103
V3.0\u000a
g8
g260
g4
tp718
a(I33
I47
I105
V4.0\u000a
g8
g262
g4
tp719
a(I33
I29
I103
V3.0\u000a
g8
g264
g4
tp720
a(I33
I4
I98
V3.0\u000a
g8
g266
g4
tp721
a(I33
I4
I96
V3.0\u000a
g8
g268
g4
tp722
a(I33
I282
I133
V9.0\u000a
g8
g270
g4
tp723
a(I33
I21
I102
V3.0\u000a
g8
g272
g4
tp724
a(I33
I14
I97
V3.0\u000a
g8
g274
g4
tp725
a(I33
I22
I102
V4.0\u000a
g8
g276
g4
tp726
a(I33
I35
I110
V4.0\u000a
g8
g278
g4
tp727
a(I33
I13
I96
V3.0\u000a
g8
g280
g4
tp728
a(I33
I32
I102
V3.0\u000a
g8
g282
g4
tp729
a(I33
I7
I94
V3.0\u000a
g8
g284
g4
tp730
a(I33
I32
I102
V3.0\u000a
g8
g286
g4
tp731
a(I33
I12
I99
V3.0\u000a
g8
g288
g4
tp732
a(I33
I44
I103
V4.0\u000a
g8
g290
g4
tp733
a(I33
I29
I102
V3.0\u000a
g8
g292
g4
tp734
a(I33
I17
I97
V3.0\u000a
g8
g294
g4
tp735
a(I33
I35
I103
V3.0\u000a
g8
g296
g4
tp736
a(I33
I802
I168
V22.0\u000a
g8
g298
g4
tp737
a(I70
I51
I119
V6.0\u000a
g10
g12
g4
tp738
a(I70
I20
I107
V4.0\u000a
g10
g14
g4
tp739
a(I70
I7
I109
V4.0\u000a
g10
g16
g4
tp740
a(I70
I84
I129
V6.0\u000a
g10
g18
g4
tp741
a(I70
I17
I111
V3.0\u000a
g10
g20
g4
tp742
a(I70
I21
I105
V3.0\u000a
g10
g22
g4
tp743
a(I70
I148
I147
V8.0\u000a
g10
g24
g4
tp744
a(I70
I121
I118
V7.0\u000a
g10
g26
g4
tp745
a(I70
I223
I129
V8.0\u000a
g10
g28
g4
tp746
a(I70
I36
I105
V4.0\u000a
g10
g30
g4
tp747
a(I70
I8
I108
V4.0\u000a
g10
g32
g4
tp748
a(I70
I43
I114
V4.0\u000a
g10
g34
g4
tp749
a(I70
I21
I107
V4.0\u000a
g10
g36
g4
tp750
a(I70
I6
I103
V4.0\u000a
g10
g38
g4
tp751
a(I70
I117
I123
V6.0\u000a
g10
g40
g4
tp752
a(I70
I21
I108
V4.0\u000a
g10
g42
g4
tp753
a(I70
I6
I108
V3.0\u000a
g10
g44
g4
tp754
a(I70
I22
I106
V4.0\u000a
g10
g46
g4
tp755
a(I70
I13
I106
V4.0\u000a
g10
g48
g4
tp756
a(I70
I1253
I137
V33.0\u000a
g10
g50
g4
tp757
a(I70
I1043
I131
V28.0\u000a
g10
g52
g4
tp758
a(I70
I33
I110
V4.0\u000a
g10
g54
g4
tp759
a(I70
I5
I106
V4.0\u000a
g10
g56
g4
tp760
a(I70
I302
I140
V11.0\u000a
g10
g58
g4
tp761
a(I70
I175
I121
V8.0\u000a
g10
g60
g4
tp762
a(I70
I15
I112
V4.0\u000a
g10
g62
g4
tp763
a(I70
I7
I108
V4.0\u000a
g10
g64
g4
tp764
a(I70
I184
I124
V8.0\u000a
g10
g66
g4
tp765
a(I70
I13
I107
V4.0\u000a
g10
g68
g4
tp766
a(I70
I147
I124
V7.0\u000a
g10
g70
g4
tp767
a(I70
I2
I103
V3.0\u000a
g10
g72
g4
tp768
a(I70
I13
I109
V3.0\u000a
g10
g74
g4
tp769
a(I70
I5
I103
V4.0\u000a
g10
g76
g4
tp770
a(I70
I167
I112
V8.0\u000a
g10
g78
g4
tp771
a(I70
I30
I112
V4.0\u000a
g10
g80
g4
tp772
a(I70
I3
I103
V3.0\u000a
g10
g82
g4
tp773
a(I70
I64
I120
V6.0\u000a
g10
g84
g4
tp774
a(I70
I28
I112
V4.0\u000a
g10
g86
g4
tp775
a(I70
I18
I110
V4.0\u000a
g10
g88
g4
tp776
a(I70
I29
I115
V4.0\u000a
g10
g90
g4
tp777
a(I70
I9
I108
V4.0\u000a
g10
g92
g4
tp778
a(I70
I36
I110
V4.0\u000a
g10
g94
g4
tp779
a(I70
I2
I103
V3.0\u000a
g10
g96
g4
tp780
a(I70
I41
I114
V4.0\u000a
g10
g98
g4
tp781
a(I70
I161
I131
V8.0\u000a
g10
g100
g4
tp782
a(I70
I2
I108
V4.0\u000a
g10
g102
g4
tp783
a(I70
I101
I124
V6.0\u000a
g10
g104
g4
tp784
a(I70
I3
I106
V4.0\u000a
g10
g106
g4
tp785
a(I70
I7
I106
V3.0\u000a
g10
g108
g4
tp786
a(I70
I70
I108
V5.0\u000a
g10
g110
g4
tp787
a(I70
I24
I108
V4.0\u000a
g10
g112
g4
tp788
a(I70
I1361
I136
V36.0\u000a
g10
g114
g4
tp789
a(I70
I25
I116
V5.0\u000a
g10
g116
g4
tp790
a(I70
I20
I120
V4.0\u000a
g10
g118
g4
tp791
a(I70
I63
I122
V5.0\u000a
g10
g120
g4
tp792
a(I70
I5
I105
V3.0\u000a
g10
g122
g4
tp793
a(I70
I80
I118
V6.0\u000a
g10
g124
g4
tp794
a(I70
I10
I108
V4.0\u000a
g10
g126
g4
tp795
a(I70
I26
I109
V4.0\u000a
g10
g128
g4
tp796
a(I70
I5
I106
V3.0\u000a
g10
g130
g4
tp797
a(I70
I91
I107
V6.0\u000a
g10
g132
g4
tp798
a(I70
I3
I106
V4.0\u000a
g10
g134
g4
tp799
a(I70
I13
I105
V4.0\u000a
g10
g136
g4
tp800
a(I70
I178
I127
V7.0\u000a
g10
g138
g4
tp801
a(I70
I391
I119
V12.0\u000a
g10
g140
g4
tp802
a(I70
I41
I121
V5.0\u000a
g10
g142
g4
tp803
a(I70
I291
I117
V10.0\u000a
g10
g144
g4
tp804
a(I70
I22
I104
V4.0\u000a
g10
g146
g4
tp805
a(I70
I381
I127
V13.0\u000a
g10
g148
g4
tp806
a(I70
I8
I106
V4.0\u000a
g10
g150
g4
tp807
a(I70
I147
I125
V8.0\u000a
g10
g152
g4
tp808
a(I70
I4
I115
V4.0\u000a
g10
g154
g4
tp809
a(I70
I23
I108
V4.0\u000a
g10
g156
g4
tp810
a(I70
I17
I111
V3.0\u000a
g10
g158
g4
tp811
a(I70
I223
I125
V9.0\u000a
g10
g160
g4
tp812
a(I70
I612
I153
V18.0\u000a
g10
g162
g4
tp813
a(I70
I8
I107
V4.0\u000a
g10
g164
g4
tp814
a(I70
I356
I136
V12.0\u000a
g10
g166
g4
tp815
a(I70
I45
I113
V5.0\u000a
g10
g168
g4
tp816
a(I70
I201
I139
V9.0\u000a
g10
g170
g4
tp817
a(I70
I6
I104
V4.0\u000a
g10
g172
g4
tp818
a(I70
I3
I105
V4.0\u000a
g10
g174
g4
tp819
a(I70
I19
I111
V4.0\u000a
g10
g176
g4
tp820
a(I70
I96
I117
V6.0\u000a
g10
g178
g4
tp821
a(I70
I2
I104
V4.0\u000a
g10
g180
g4
tp822
a(I70
I345
I121
V12.0\u000a
g10
g182
g4
tp823
a(I70
I9
I105
V3.0\u000a
g10
g184
g4
tp824
a(I70
I23
I115
V5.0\u000a
g10
g186
g4
tp825
a(I70
I11
I106
V4.0\u000a
g10
g188
g4
tp826
a(I70
I52
I114
V5.0\u000a
g10
g190
g4
tp827
a(I70
I20
I107
V4.0\u000a
g10
g192
g4
tp828
a(I70
I28
I113
V5.0\u000a
g10
g194
g4
tp829
a(I70
I6
I107
V4.0\u000a
g10
g196
g4
tp830
a(I70
I12
I106
V4.0\u000a
g10
g198
g4
tp831
a(I70
I28
I111
V4.0\u000a
g10
g200
g4
tp832
a(I70
I4
I105
V3.0\u000a
g10
g202
g4
tp833
a(I70
I30
I108
V5.0\u000a
g10
g204
g4
tp834
a(I70
I17
I110
V4.0\u000a
g10
g206
g4
tp835
a(I70
I78
I131
V5.0\u000a
g10
g208
g4
tp836
a(I70
I146
I137
V7.0\u000a
g10
g210
g4
tp837
a(I70
I5
I104
V4.0\u000a
g10
g212
g4
tp838
a(I70
I10
I111
V4.0\u000a
g10
g214
g4
tp839
a(I70
I1019
I134
V27.0\u000a
g10
g216
g4
tp840
a(I70
I40
I122
V5.0\u000a
g10
g218
g4
tp841
a(I70
I10
I105
V4.0\u000a
g10
g220
g4
tp842
a(I70
I90
I117
V5.0\u000a
g10
g222
g4
tp843
a(I70
I120
I112
V7.0\u000a
g10
g224
g4
tp844
a(I70
I239
I125
V9.0\u000a
g10
g226
g4
tp845
a(I70
I1
I104
V3.0\u000a
g10
g228
g4
tp846
a(I70
I50
I113
V6.0\u000a
g10
g230
g4
tp847
a(I70
I260
I110
V10.0\u000a
g10
g232
g4
tp848
a(I70
I903
I131
V25.0\u000a
g10
g234
g4
tp849
a(I70
I14
I107
V3.0\u000a
g10
g236
g4
tp850
a(I70
I2
I110
V4.0\u000a
g10
g238
g4
tp851
a(I70
I18
I105
V4.0\u000a
g10
g240
g4
tp852
a(I70
I21
I106
V4.0\u000a
g10
g242
g4
tp853
a(I70
I1
I105
V3.0\u000a
g10
g244
g4
tp854
a(I70
I6
I105
V4.0\u000a
g10
g246
g4
tp855
a(I70
I47
I114
V5.0\u000a
g10
g248
g4
tp856
a(I70
I1110
I138
V30.0\u000a
g10
g250
g4
tp857
a(I70
I5
I105
V3.0\u000a
g10
g252
g4
tp858
a(I70
I13
I106
V4.0\u000a
g10
g254
g4
tp859
a(I70
I4
I104
V4.0\u000a
g10
g256
g4
tp860
a(I70
I122
I113
V6.0\u000a
g10
g258
g4
tp861
a(I70
I10
I107
V4.0\u000a
g10
g260
g4
tp862
a(I70
I47
I111
V5.0\u000a
g10
g262
g4
tp863
a(I70
I29
I109
V5.0\u000a
g10
g264
g4
tp864
a(I70
I4
I110
V4.0\u000a
g10
g266
g4
tp865
a(I70
I4
I105
V3.0\u000a
g10
g268
g4
tp866
a(I70
I282
I135
V10.0\u000a
g10
g270
g4
tp867
a(I70
I21
I109
V4.0\u000a
g10
g272
g4
tp868
a(I70
I14
I107
V4.0\u000a
g10
g274
g4
tp869
a(I70
I22
I113
V4.0\u000a
g10
g276
g4
tp870
a(I70
I35
I116
V4.0\u000a
g10
g278
g4
tp871
a(I70
I13
I105
V4.0\u000a
g10
g280
g4
tp872
a(I70
I32
I109
V4.0\u000a
g10
g282
g4
tp873
a(I70
I7
I106
V3.0\u000a
g10
g284
g4
tp874
a(I70
I32
I110
V5.0\u000a
g10
g286
g4
tp875
a(I70
I12
I110
V4.0\u000a
g10
g288
g4
tp876
a(I70
I44
I108
V4.0\u000a
g10
g290
g4
tp877
a(I70
I29
I108
V4.0\u000a
g10
g292
g4
tp878
a(I70
I17
I109
V4.0\u000a
g10
g294
g4
tp879
a(I70
I35
I110
V4.0\u000a
g10
g296
g4
tp880
a(I70
I802
I170
V22.0\u000a
g10
g298
g4
tp881
a(I51
I20
I110
V3.0\u000a
g12
g14
g4
tp882
a(I51
I7
I109
V4.0\u000a
g12
g16
g4
tp883
a(I51
I84
I125
V6.0\u000a
g12
g18
g4
tp884
a(I51
I17
I110
V3.0\u000a
g12
g20
g4
tp885
a(I51
I21
I105
V3.0\u000a
g12
g22
g4
tp886
a(I51
I148
I145
V8.0\u000a
g12
g24
g4
tp887
a(I51
I121
I117
V6.0\u000a
g12
g26
g4
tp888
a(I51
I223
I134
V9.0\u000a
g12
g28
g4
tp889
a(I51
I36
I108
V4.0\u000a
g12
g30
g4
tp890
a(I51
I8
I106
V3.0\u000a
g12
g32
g4
tp891
a(I51
I43
I111
V4.0\u000a
g12
g34
g4
tp892
a(I51
I21
I106
V3.0\u000a
g12
g36
g4
tp893
a(I51
I6
I105
V4.0\u000a
g12
g38
g4
tp894
a(I51
I117
I127
V6.0\u000a
g12
g40
g4
tp895
a(I51
I21
I106
V4.0\u000a
g12
g42
g4
tp896
a(I51
I6
I107
V3.0\u000a
g12
g44
g4
tp897
a(I51
I22
I110
V4.0\u000a
g12
g46
g4
tp898
a(I51
I13
I107
V4.0\u000a
g12
g48
g4
tp899
a(I51
I1253
I137
V33.0\u000a
g12
g50
g4
tp900
a(I51
I1043
I129
V27.0\u000a
g12
g52
g4
tp901
a(I51
I33
I108
V3.0\u000a
g12
g54
g4
tp902
a(I51
I5
I105
V3.0\u000a
g12
g56
g4
tp903
a(I51
I302
I142
V11.0\u000a
g12
g58
g4
tp904
a(I51
I175
I120
V7.0\u000a
g12
g60
g4
tp905
a(I51
I15
I111
V3.0\u000a
g12
g62
g4
tp906
a(I51
I7
I108
V3.0\u000a
g12
g64
g4
tp907
a(I51
I184
I120
V8.0\u000a
g12
g66
g4
tp908
a(I51
I13
I107
V4.0\u000a
g12
g68
g4
tp909
a(I51
I147
I124
V7.0\u000a
g12
g70
g4
tp910
a(I51
I2
I105
V3.0\u000a
g12
g72
g4
tp911
a(I51
I13
I108
V3.0\u000a
g12
g74
g4
tp912
a(I51
I5
I105
V4.0\u000a
g12
g76
g4
tp913
a(I51
I167
I110
V7.0\u000a
g12
g78
g4
tp914
a(I51
I30
I111
V3.0\u000a
g12
g80
g4
tp915
a(I51
I3
I107
V4.0\u000a
g12
g82
g4
tp916
a(I51
I64
I116
V5.0\u000a
g12
g84
g4
tp917
a(I51
I28
I113
V4.0\u000a
g12
g86
g4
tp918
a(I51
I18
I110
V3.0\u000a
g12
g88
g4
tp919
a(I51
I29
I112
V4.0\u000a
g12
g90
g4
tp920
a(I51
I9
I108
V4.0\u000a
g12
g92
g4
tp921
a(I51
I36
I110
V4.0\u000a
g12
g94
g4
tp922
a(I51
I2
I105
V3.0\u000a
g12
g96
g4
tp923
a(I51
I41
I113
V4.0\u000a
g12
g98
g4
tp924
a(I51
I161
I130
V6.0\u000a
g12
g100
g4
tp925
a(I51
I2
I107
V3.0\u000a
g12
g102
g4
tp926
a(I51
I101
I122
V5.0\u000a
g12
g104
g4
tp927
a(I51
I3
I108
V3.0\u000a
g12
g106
g4
tp928
a(I51
I7
I106
V3.0\u000a
g12
g108
g4
tp929
a(I51
I70
I110
V5.0\u000a
g12
g110
g4
tp930
a(I51
I24
I106
V4.0\u000a
g12
g112
g4
tp931
a(I51
I1361
I137
V35.0\u000a
g12
g114
g4
tp932
a(I51
I25
I112
V4.0\u000a
g12
g116
g4
tp933
a(I51
I20
I119
V4.0\u000a
g12
g118
g4
tp934
a(I51
I63
I121
V4.0\u000a
g12
g120
g4
tp935
a(I51
I5
I106
V3.0\u000a
g12
g122
g4
tp936
a(I51
I80
I120
V5.0\u000a
g12
g124
g4
tp937
a(I51
I10
I107
V3.0\u000a
g12
g126
g4
tp938
a(I51
I26
I111
V3.0\u000a
g12
g128
g4
tp939
a(I51
I5
I105
V4.0\u000a
g12
g130
g4
tp940
a(I51
I91
I108
V5.0\u000a
g12
g132
g4
tp941
a(I51
I3
I105
V3.0\u000a
g12
g134
g4
tp942
a(I51
I13
I107
V3.0\u000a
g12
g136
g4
tp943
a(I51
I178
I127
V8.0\u000a
g12
g138
g4
tp944
a(I51
I391
I120
V13.0\u000a
g12
g140
g4
tp945
a(I51
I41
I117
V4.0\u000a
g12
g142
g4
tp946
a(I51
I291
I115
V10.0\u000a
g12
g144
g4
tp947
a(I51
I22
I105
V3.0\u000a
g12
g146
g4
tp948
a(I51
I381
I123
V12.0\u000a
g12
g148
g4
tp949
a(I51
I8
I106
V3.0\u000a
g12
g150
g4
tp950
a(I51
I147
I125
V6.0\u000a
g12
g152
g4
tp951
a(I51
I4
I114
V3.0\u000a
g12
g154
g4
tp952
a(I51
I23
I106
V4.0\u000a
g12
g156
g4
tp953
a(I51
I17
I111
V4.0\u000a
g12
g158
g4
tp954
a(I51
I223
I125
V8.0\u000a
g12
g160
g4
tp955
a(I51
I612
I155
V18.0\u000a
g12
g162
g4
tp956
a(I51
I8
I106
V3.0\u000a
g12
g164
g4
tp957
a(I51
I356
I138
V12.0\u000a
g12
g166
g4
tp958
a(I51
I45
I109
V4.0\u000a
g12
g168
g4
tp959
a(I51
I201
I139
V9.0\u000a
g12
g170
g4
tp960
a(I51
I6
I105
V3.0\u000a
g12
g172
g4
tp961
a(I51
I3
I107
V4.0\u000a
g12
g174
g4
tp962
a(I51
I19
I113
V4.0\u000a
g12
g176
g4
tp963
a(I51
I96
I111
V5.0\u000a
g12
g178
g4
tp964
a(I51
I2
I106
V3.0\u000a
g12
g180
g4
tp965
a(I51
I345
I120
V11.0\u000a
g12
g182
g4
tp966
a(I51
I9
I106
V3.0\u000a
g12
g184
g4
tp967
a(I51
I23
I113
V4.0\u000a
g12
g186
g4
tp968
a(I51
I11
I106
V4.0\u000a
g12
g188
g4
tp969
a(I51
I52
I112
V4.0\u000a
g12
g190
g4
tp970
a(I51
I20
I109
V3.0\u000a
g12
g192
g4
tp971
a(I51
I28
I109
V3.0\u000a
g12
g194
g4
tp972
a(I51
I6
I108
V4.0\u000a
g12
g196
g4
tp973
a(I51
I12
I107
V4.0\u000a
g12
g198
g4
tp974
a(I51
I28
I108
V3.0\u000a
g12
g200
g4
tp975
a(I51
I4
I106
V3.0\u000a
g12
g202
g4
tp976
a(I51
I30
I111
V4.0\u000a
g12
g204
g4
tp977
a(I51
I17
I109
V3.0\u000a
g12
g206
g4
tp978
a(I51
I78
I129
V5.0\u000a
g12
g208
g4
tp979
a(I51
I146
I138
V7.0\u000a
g12
g210
g4
tp980
a(I51
I5
I105
V3.0\u000a
g12
g212
g4
tp981
a(I51
I10
I109
V3.0\u000a
g12
g214
g4
tp982
a(I51
I1019
I133
V26.0\u000a
g12
g216
g4
tp983
a(I51
I40
I119
V4.0\u000a
g12
g218
g4
tp984
a(I51
I10
I106
V3.0\u000a
g12
g220
g4
tp985
a(I51
I90
I112
V6.0\u000a
g12
g222
g4
tp986
a(I51
I120
I115
V6.0\u000a
g12
g224
g4
tp987
a(I51
I239
I124
V9.0\u000a
g12
g226
g4
tp988
a(I51
I1
I105
V3.0\u000a
g12
g228
g4
tp989
a(I51
I50
I113
V4.0\u000a
g12
g230
g4
tp990
a(I51
I260
I112
V9.0\u000a
g12
g232
g4
tp991
a(I51
I903
I130
V24.0\u000a
g12
g234
g4
tp992
a(I51
I14
I105
V3.0\u000a
g12
g236
g4
tp993
a(I51
I2
I107
V3.0\u000a
g12
g238
g4
tp994
a(I51
I18
I106
V4.0\u000a
g12
g240
g4
tp995
a(I51
I21
I105
V3.0\u000a
g12
g242
g4
tp996
a(I51
I1
I105
V3.0\u000a
g12
g244
g4
tp997
a(I51
I6
I107
V3.0\u000a
g12
g246
g4
tp998
a(I51
I47
I118
V4.0\u000a
g12
g248
g4
tp999
a(I51
I1110
I137
V30.0\u000a
g12
g250
g4
tp1000
a(I51
I5
I107
V3.0\u000a
g12
g252
g4
tp1001
a(I51
I13
I105
V3.0\u000a
g12
g254
g4
tp1002
a(I51
I4
I105
V3.0\u000a
g12
g256
g4
tp1003
a(I51
I122
I114
V6.0\u000a
g12
g258
g4
tp1004
a(I51
I10
I110
V4.0\u000a
g12
g260
g4
tp1005
a(I51
I47
I112
V4.0\u000a
g12
g262
g4
tp1006
a(I51
I29
I109
V4.0\u000a
g12
g264
g4
tp1007
a(I51
I4
I109
V3.0\u000a
g12
g266
g4
tp1008
a(I51
I4
I106
V4.0\u000a
g12
g268
g4
tp1009
a(I51
I282
I137
V10.0\u000a
g12
g270
g4
tp1010
a(I51
I21
I109
V4.0\u000a
g12
g272
g4
tp1011
a(I51
I14
I105
V3.0\u000a
g12
g274
g4
tp1012
a(I51
I22
I111
V3.0\u000a
g12
g276
g4
tp1013
a(I51
I35
I116
V3.0\u000a
g12
g278
g4
tp1014
a(I51
I13
I106
V4.0\u000a
g12
g280
g4
tp1015
a(I51
I32
I111
V4.0\u000a
g12
g282
g4
tp1016
a(I51
I7
I106
V3.0\u000a
g12
g284
g4
tp1017
a(I51
I32
I110
V4.0\u000a
g12
g286
g4
tp1018
a(I51
I12
I108
V3.0\u000a
g12
g288
g4
tp1019
a(I51
I44
I111
V4.0\u000a
g12
g290
g4
tp1020
a(I51
I29
I110
V3.0\u000a
g12
g292
g4
tp1021
a(I51
I17
I106
V4.0\u000a
g12
g294
g4
tp1022
a(I51
I35
I108
V4.0\u000a
g12
g296
g4
tp1023
a(I51
I802
I167
V22.0\u000a
g12
g298
g4
tp1024
a(I20
I7
I89
V2.0\u000a
g14
g16
g4
tp1025
a(I20
I84
I123
V4.0\u000a
g14
g18
g4
tp1026
a(I20
I17
I97
V2.0\u000a
g14
g20
g4
tp1027
a(I20
I21
I83
V3.0\u000a
g14
g22
g4
tp1028
a(I20
I148
I138
V7.0\u000a
g14
g24
g4
tp1029
a(I20
I121
I108
V5.0\u000a
g14
g26
g4
tp1030
a(I20
I223
I132
V8.0\u000a
g14
g28
g4
tp1031
a(I20
I36
I84
V3.0\u000a
g14
g30
g4
tp1032
a(I20
I8
I86
V2.0\u000a
g14
g32
g4
tp1033
a(I20
I43
I104
V3.0\u000a
g14
g34
g4
tp1034
a(I20
I21
I88
V2.0\u000a
g14
g36
g4
tp1035
a(I20
I6
I72
V2.0\u000a
g14
g38
g4
tp1036
a(I20
I117
I115
V5.0\u000a
g14
g40
g4
tp1037
a(I20
I21
I86
V3.0\u000a
g14
g42
g4
tp1038
a(I20
I6
I83
V2.0\u000a
g14
g44
g4
tp1039
a(I20
I22
I93
V3.0\u000a
g14
g46
g4
tp1040
a(I20
I13
I84
V2.0\u000a
g14
g48
g4
tp1041
a(I20
I1253
I129
V32.0\u000a
g14
g50
g4
tp1042
a(I20
I1043
I123
V27.0\u000a
g14
g52
g4
tp1043
a(I20
I33
I87
V2.0\u000a
g14
g54
g4
tp1044
a(I20
I5
I74
V2.0\u000a
g14
g56
g4
tp1045
a(I20
I302
I139
V10.0\u000a
g14
g58
g4
tp1046
a(I20
I175
I112
V6.0\u000a
g14
g60
g4
tp1047
a(I20
I15
I99
V3.0\u000a
g14
g62
g4
tp1048
a(I20
I7
I86
V2.0\u000a
g14
g64
g4
tp1049
a(I20
I184
I113
V6.0\u000a
g14
g66
g4
tp1050
a(I20
I13
I82
V2.0\u000a
g14
g68
g4
tp1051
a(I20
I147
I113
V5.0\u000a
g14
g70
g4
tp1052
a(I20
I2
I73
V2.0\u000a
g14
g72
g4
tp1053
a(I20
I13
I84
V3.0\u000a
g14
g74
g4
tp1054
a(I20
I5
I77
V2.0\u000a
g14
g76
g4
tp1055
a(I20
I167
I94
V6.0\u000a
g14
g78
g4
tp1056
a(I20
I30
I91
V3.0\u000a
g14
g80
g4
tp1057
a(I20
I3
I73
V2.0\u000a
g14
g82
g4
tp1058
a(I20
I64
I104
V3.0\u000a
g14
g84
g4
tp1059
a(I20
I28
I98
V3.0\u000a
g14
g86
g4
tp1060
a(I20
I18
I78
V2.0\u000a
g14
g88
g4
tp1061
a(I20
I29
I94
V3.0\u000a
g14
g90
g4
tp1062
a(I20
I9
I86
V2.0\u000a
g14
g92
g4
tp1063
a(I20
I36
I89
V3.0\u000a
g14
g94
g4
tp1064
a(I20
I2
I75
V2.0\u000a
g14
g96
g4
tp1065
a(I20
I41
I101
V3.0\u000a
g14
g98
g4
tp1066
a(I20
I161
I125
V6.0\u000a
g14
g100
g4
tp1067
a(I20
I2
I90
V2.0\u000a
g14
g102
g4
tp1068
a(I20
I101
I116
V5.0\u000a
g14
g104
g4
tp1069
a(I20
I3
I83
V2.0\u000a
g14
g106
g4
tp1070
a(I20
I7
I75
V2.0\u000a
g14
g108
g4
tp1071
a(I20
I70
I89
V4.0\u000a
g14
g110
g4
tp1072
a(I20
I24
I84
V3.0\u000a
g14
g112
g4
tp1073
a(I20
I1361
I129
V35.0\u000a
g14
g114
g4
tp1074
a(I20
I25
I101
V3.0\u000a
g14
g116
g4
tp1075
a(I20
I20
I106
V3.0\u000a
g14
g118
g4
tp1076
a(I20
I63
I112
V3.0\u000a
g14
g120
g4
tp1077
a(I20
I5
I75
V2.0\u000a
g14
g122
g4
tp1078
a(I20
I80
I104
V4.0\u000a
g14
g124
g4
tp1079
a(I20
I10
I91
V2.0\u000a
g14
g126
g4
tp1080
a(I20
I26
I85
V3.0\u000a
g14
g128
g4
tp1081
a(I20
I5
I77
V2.0\u000a
g14
g130
g4
tp1082
a(I20
I91
I86
V4.0\u000a
g14
g132
g4
tp1083
a(I20
I3
I81
V2.0\u000a
g14
g134
g4
tp1084
a(I20
I13
I77
V2.0\u000a
g14
g136
g4
tp1085
a(I20
I178
I123
V7.0\u000a
g14
g138
g4
tp1086
a(I20
I391
I109
V12.0\u000a
g14
g140
g4
tp1087
a(I20
I41
I107
V3.0\u000a
g14
g142
g4
tp1088
a(I20
I291
I103
V9.0\u000a
g14
g144
g4
tp1089
a(I20
I22
I74
V3.0\u000a
g14
g146
g4
tp1090
a(I20
I381
I115
V12.0\u000a
g14
g148
g4
tp1091
a(I20
I8
I83
V2.0\u000a
g14
g150
g4
tp1092
a(I20
I147
I118
V6.0\u000a
g14
g152
g4
tp1093
a(I20
I4
I96
V2.0\u000a
g14
g154
g4
tp1094
a(I20
I23
I81
V3.0\u000a
g14
g156
g4
tp1095
a(I20
I17
I96
V3.0\u000a
g14
g158
g4
tp1096
a(I20
I223
I117
V8.0\u000a
g14
g160
g4
tp1097
a(I20
I612
I152
V17.0\u000a
g14
g162
g4
tp1098
a(I20
I8
I77
V2.0\u000a
g14
g164
g4
tp1099
a(I20
I356
I129
V11.0\u000a
g14
g166
g4
tp1100
a(I20
I45
I102
V3.0\u000a
g14
g168
g4
tp1101
a(I20
I201
I132
V7.0\u000a
g14
g170
g4
tp1102
a(I20
I6
I75
V2.0\u000a
g14
g172
g4
tp1103
a(I20
I3
I78
V2.0\u000a
g14
g174
g4
tp1104
a(I20
I19
I94
V3.0\u000a
g14
g176
g4
tp1105
a(I20
I96
I108
V5.0\u000a
g14
g178
g4
tp1106
a(I20
I2
I74
V2.0\u000a
g14
g180
g4
tp1107
a(I20
I345
I113
V10.0\u000a
g14
g182
g4
tp1108
a(I20
I9
I79
V2.0\u000a
g14
g184
g4
tp1109
a(I20
I23
I96
V3.0\u000a
g14
g186
g4
tp1110
a(I20
I11
I86
V2.0\u000a
g14
g188
g4
tp1111
a(I20
I52
I98
V4.0\u000a
g14
g190
g4
tp1112
a(I20
I20
I80
V2.0\u000a
g14
g192
g4
tp1113
a(I20
I28
I96
V3.0\u000a
g14
g194
g4
tp1114
a(I20
I6
I88
V2.0\u000a
g14
g196
g4
tp1115
a(I20
I12
I79
V3.0\u000a
g14
g198
g4
tp1116
a(I20
I28
I96
V3.0\u000a
g14
g200
g4
tp1117
a(I20
I4
I74
V2.0\u000a
g14
g202
g4
tp1118
a(I20
I30
I91
V3.0\u000a
g14
g204
g4
tp1119
a(I20
I17
I93
V3.0\u000a
g14
g206
g4
tp1120
a(I20
I78
I124
V4.0\u000a
g14
g208
g4
tp1121
a(I20
I146
I134
V6.0\u000a
g14
g210
g4
tp1122
a(I20
I5
I73
V2.0\u000a
g14
g212
g4
tp1123
a(I20
I10
I94
V2.0\u000a
g14
g214
g4
tp1124
a(I20
I1019
I124
V26.0\u000a
g14
g216
g4
tp1125
a(I20
I40
I111
V4.0\u000a
g14
g218
g4
tp1126
a(I20
I10
I79
V2.0\u000a
g14
g220
g4
tp1127
a(I20
I90
I105
V4.0\u000a
g14
g222
g4
tp1128
a(I20
I120
I102
V4.0\u000a
g14
g224
g4
tp1129
a(I20
I239
I115
V8.0\u000a
g14
g226
g4
tp1130
a(I20
I1
I72
V1.0\u000a
g14
g228
g4
tp1131
a(I20
I50
I95
V3.0\u000a
g14
g230
g4
tp1132
a(I20
I260
I94
V8.0\u000a
g14
g232
g4
tp1133
a(I20
I903
I122
V23.0\u000a
g14
g234
g4
tp1134
a(I20
I14
I81
V3.0\u000a
g14
g236
g4
tp1135
a(I20
I2
I84
V2.0\u000a
g14
g238
g4
tp1136
a(I20
I18
I74
V2.0\u000a
g14
g240
g4
tp1137
a(I20
I21
I77
V2.0\u000a
g14
g242
g4
tp1138
a(I20
I1
I73
V2.0\u000a
g14
g244
g4
tp1139
a(I20
I6
I83
V2.0\u000a
g14
g246
g4
tp1140
a(I20
I47
I108
V3.0\u000a
g14
g248
g4
tp1141
a(I20
I1110
I135
V28.0\u000a
g14
g250
g4
tp1142
a(I20
I5
I80
V2.0\u000a
g14
g252
g4
tp1143
a(I20
I13
I80
V2.0\u000a
g14
g254
g4
tp1144
a(I20
I4
I73
V2.0\u000a
g14
g256
g4
tp1145
a(I20
I122
I97
V5.0\u000a
g14
g258
g4
tp1146
a(I20
I10
I97
V2.0\u000a
g14
g260
g4
tp1147
a(I20
I47
I99
V4.0\u000a
g14
g262
g4
tp1148
a(I20
I29
I90
V3.0\u000a
g14
g264
g4
tp1149
a(I20
I4
I87
V3.0\u000a
g14
g266
g4
tp1150
a(I20
I4
I80
V2.0\u000a
g14
g268
g4
tp1151
a.